(dp0
Vdyslexic
p1
(lp2
I3643
aI1
asS' ti'
p3
(lp4
I1093
aI7
asV1200
p5
(lp6
I3432
aI1
asVpersonally
p7
(lp8
I3844
aI1
asVdynasty
p9
(lp10
I1619
aI3
asS'nwe'
p11
(lp12
I3113
aI1
asVDoes
p13
(lp14
I1516
aI3
asVentropy
p15
(lp16
I2044
aI7
asVasian
p17
(lp18
I1113
aI11
asS'Cou'
p19
(lp20
I3116
aI1
asS'nwo'
p21
(lp22
I2718
aI1
asS'alk'
p23
(lp24
I1679
aI7
asVincrease
p25
(lp26
I2278
aI1
asS'auc'
p27
(lp28
I3023
aI1
asVchinese
p29
(lp30
I805
aI29
asVparis
p31
(lp32
I928
aI19
asS'oeb'
p33
(lp34
I3521
aI1
asS'up '
p35
(lp36
I2542
aI2
asS'aus'
p37
(lp38
I1432
aI5
asS'aur'
p39
(lp40
I561
aI47
asVunder
p41
(lp42
I1317
aI5
asVChina
p43
(lp44
I2879
aI4
asVsorry
p45
(lp46
I3615
aI1
asVworth
p47
(lp48
I3590
aI1
asVLeague
p49
(lp50
I1380
aI2
asS' Gr'
p51
(lp52
I981
aI16
asVrisk
p53
(lp54
I2238
aI1
asS'ble'
p55
(lp56
I3092
aI2
asS' Ge'
p57
(lp58
I1553
aI4
asS'ava'
p59
(lp60
I3640
aI1
asS' Go'
p61
(lp62
I148
aI6
asVmissionary
p63
(lp64
I2612
aI2
asS'2 1'
p65
(lp66
I2750
aI1
asVschool
p67
(lp68
I432
aI1
asS'Gr'
p69
(lp70
I967
aI16
asS'Ge'
p71
(lp72
I1547
aI4
asS'xt '
p73
(lp74
I3004
aI1
asS'Go'
p75
(lp76
I115
aI6
asS'aiw'
p77
(lp78
I3771
aI1
asS'upp'
p79
(lp80
I2180
aI4
asVclothes
p81
(lp82
I2992
aI3
asS'me '
p83
(lp84
I740
aI106
asS' ke'
p85
(lp86
I2421
aI1
asS' ki'
p87
(lp88
I2758
aI4
asS' kn'
p89
(lp90
I762
aI32
asS' ko'
p91
(lp92
I2116
aI7
asS'Ce'
p93
(lp94
I3697
aI1
asVDescribe
p95
(lp96
I3802
aI1
asS'n'
p97
(lp98
I13
aI1425
asS'nen'
p99
(lp100
I1312
aI12
asS'neo'
p101
(lp102
I2054
aI3
asS'nem'
p103
(lp104
I2666
aI1
asVUmayyad
p105
(lp106
I1618
aI1
asS'nef'
p107
(lp108
I3256
aI1
asS'neg'
p109
(lp110
I3186
aI1
asS'ned'
p111
(lp112
I2305
aI3
asS'nee'
p113
(lp114
I758
aI18
asVcontributed
p115
(lp116
I2062
aI2
asS'k R'
p117
(lp118
I2965
aI1
asVchildren
p119
(lp120
I1544
aI10
asS'ier'
p121
(lp122
I3372
aI2
asS'ain'
p123
(lp124
I276
aI24
asS'nex'
p125
(lp126
I3002
aI1
asS'dr.'
p127
(lp128
I2815
aI1
asVnew
p129
(lp130
I1005
aI14
asS'net'
p131
(lp132
I2733
aI3
asS'neu'
p133
(lp134
I1281
aI2
asS'ner'
p135
(lp136
I1803
aI4
asS'nes'
p137
(lp138
I812
aI41
asS' 91'
p139
(lp140
I2929
aI1
asS'med'
p141
(lp142
I382
aI1
asS'ecl'
p143
(lp144
I3222
aI2
asS'mea'
p145
(lp146
I1044
aI10
asS'ws '
p147
(lp148
I2908
aI2
asS'meo'
p149
(lp150
I1058
aI2
asS'men'
p151
(lp152
I745
aI25
asVhere
p153
(lp154
I820
aI2
asS'ors'
p155
(lp156
I2090
aI5
asS'met'
p157
(lp158
I1808
aI5
asS'109'
p159
(lp160
I2808
aI1
asVchina
p161
(lp162
I1485
aI4
asS'mer'
p163
(lp164
I511
aI15
asS'mex'
p165
(lp166
I3295
aI1
asS'bj'
p167
(lp168
I3260
aI1
asS'gli'
p169
(lp170
I1567
aI4
asVkids
p171
(lp172
I2940
aI1
asS' yo'
p173
(lp174
I641
aI66
asS'gla'
p175
(lp176
I3819
aI1
asS'k'
p177
(lp178
I492
aI193
asS'ecu'
p179
(lp180
I2032
aI2
asS'ne '
p181
(lp182
I1060
aI16
asS'dri'
p183
(lp184
I1411
aI2
asVforbes
p185
(lp186
I1501
aI2
asVi'm
p187
(lp188
I2470
aI2
asS'dre'
p189
(lp190
I1048
aI13
asS'ake'
p191
(lp192
I2128
aI3
asS'nk '
p193
(lp194
I3150
aI4
asS'Jes'
p195
(lp196
I2005
aI2
asS'-i'
p197
(lp198
I3475
aI1
asS'bru'
p199
(lp200
I3754
aI2
asS'gon'
p201
(lp202
I3848
aI1
asS'ea '
p203
(lp204
I3203
aI1
asVbrought
p205
(lp206
I2670
aI1
asVBasin
p207
(lp208
I1857
aI1
asS'bra'
p209
(lp210
I709
aI4
asS'm '
p211
(lp212
I293
aI122
asVwould
p213
(lp214
I2356
aI5
asVarmy
p215
(lp216
I1764
aI5
asVsweater
p217
(lp218
I3468
aI1
asS'er?'
p219
(lp220
I1804
aI1
asVnegative
p221
(lp222
I3185
aI1
asS'vol'
p223
(lp224
I3658
aI2
asS"er'"
p225
(lp226
I3811
aI1
asVmusic
p227
(lp228
I1181
aI20
asVrecommend
p229
(lp230
I2336
aI8
asVtell
p231
(lp232
I1071
aI68
asS'ajo'
p233
(lp234
I2606
aI2
asS"' w"
p235
(lp236
I3419
aI1
asS'Sta'
p237
(lp238
I2397
aI1
asS' 22'
p239
(lp240
I2748
aI3
asVsuccessful
p241
(lp242
I1924
aI5
asVRacism
p243
(lp244
I284
aI1
asS'99'
p245
(lp246
I2743
aI1
asVphone
p247
(lp248
I2784
aI1
asS' 2 '
p249
(lp250
I3189
aI4
asS'V'
p251
(lp252
I2373
aI2
asS'91'
p253
(lp254
I2744
aI3
asS'90'
p255
(lp256
I2801
aI1
asS"' s"
p257
(lp258
I2301
aI1
asVcasualties
p259
(lp260
I160
aI1
asS'rry'
p261
(lp262
I3288
aI2
asS'96'
p263
(lp264
I2796
aI1
asS'me'
p265
(lp266
I336
aI259
asS'erv'
p267
(lp268
I1658
aI3
asS'erw'
p269
(lp270
I1833
aI1
asS'ma'
p271
(lp272
I635
aI66
asS'ltu'
p273
(lp274
I3122
aI4
asS'err'
p275
(lp276
I1882
aI2
asS'mb'
p277
(lp278
I349
aI3
asS'mm'
p279
(lp280
I691
aI18
asS'mo'
p281
(lp282
I1347
aI22
asVwork
p283
(lp284
I1475
aI6
asS'mi'
p285
(lp286
I1442
aI29
asS'ery'
p287
(lp288
I602
aI8
asS'tc'
p289
(lp290
I2240
aI2
asS'mu'
p291
(lp292
I1007
aI64
asS'ere'
p293
(lp294
I199
aI107
asS'erg'
p295
(lp296
I2466
aI1
asS'era'
p297
(lp298
I283
aI12
asS'ms'
p299
(lp300
I452
aI17
asS'erm'
p301
(lp302
I1555
aI5
asS'ern'
p303
(lp304
I1816
aI5
asS'my'
p305
(lp306
I1765
aI5
asS'eri'
p307
(lp308
I512
aI23
asS'sle'
p309
(lp310
I3647
aI1
asS'2 a'
p311
(lp312
I3342
aI1
asS'Le'
p313
(lp314
I1128
aI3
asS'Nat'
p315
(lp316
I1402
aI6
asVgive
p317
(lp318
I1610
aI3
asS'pie'
p319
(lp320
I3741
aI1
asS'Lo'
p321
(lp322
I253
aI10
asS'uar'
p323
(lp324
I951
aI1
asS'Li'
p325
(lp326
I20
aI2
asS'mpe'
p327
(lp328
I676
aI7
asS'ual'
p329
(lp330
I207
aI3
asVwant
p331
(lp332
I865
aI76
asS'Lis'
p333
(lp334
I47
aI2
asS'2 e'
p335
(lp336
I3300
aI1
asS'uag'
p337
(lp338
I2420
aI1
asS'bje'
p339
(lp340
I3264
aI1
asS'enb'
p341
(lp342
I2464
aI1
asS'enc'
p343
(lp344
I553
aI19
asS'end'
p345
(lp346
I1367
aI31
asS'ene'
p347
(lp348
I2665
aI2
asVthing
p349
(lp350
I3218
aI1
asVflight
p351
(lp352
I1824
aI6
asS'hoo'
p353
(lp354
I460
aI2
asVtravel
p355
(lp356
I1309
aI6
asS'mpa'
p357
(lp358
I3529
aI1
asS'hok'
p359
(lp360
I3602
aI2
asS'enn'
p361
(lp362
I1135
aI1
asS'hoi'
p363
(lp364
I3479
aI1
asS'how'
p365
(lp366
I738
aI75
asS'hot'
p367
(lp368
I938
aI31
asS'hou'
p369
(lp370
I1750
aI12
asS'ent'
p371
(lp372
I235
aI59
asS'enu'
p373
(lp374
I746
aI1
asS'hop'
p375
(lp376
I1194
aI22
asS'l f'
p377
(lp378
I1947
aI1
asS'10 '
p379
(lp380
I3206
aI2
asS'eny'
p381
(lp382
I2423
aI2
asS"' c"
p383
(lp384
I2010
aI2
asS'l e'
p385
(lp386
I2362
aI3
asVpizza
p387
(lp388
I1577
aI4
asS'A'
p389
(lp390
I892
aI66
asS'lam'
p391
(lp392
I3037
aI8
asS'lan'
p393
(lp394
I1091
aI10
asS'lai'
p395
(lp396
I2071
aI1
asVafter
p397
(lp398
I1201
aI10
asS'lac'
p399
(lp400
I1606
aI15
asVasked
p401
(lp402
I3612
aI1
asS'lax'
p403
(lp404
I2022
aI2
asS'al '
p405
(lp406
I1147
aI22
asS'ove'
p407
(lp408
I661
aI8
asS'lat'
p409
(lp410
I724
aI8
asVpresident
p411
(lp412
I1372
aI4
asS'ovi'
p413
(lp414
I2295
aI1
asS'lap'
p415
(lp416
I3354
aI1
asS'lti'
p417
(lp418
I209
aI6
asS'lar'
p419
(lp420
I854
aI16
asS'las'
p421
(lp422
I3768
aI1
asS'en '
p423
(lp424
I1160
aI34
asS'ho '
p425
(lp426
I1361
aI41
asS"en'"
p427
(lp428
I3125
aI1
asS'Ale'
p429
(lp430
I976
aI25
asS'2 s'
p431
(lp432
I3190
aI1
asVthink
p433
(lp434
I3147
aI4
asVgreek
p435
(lp436
I2199
aI3
asVI'd
p437
(lp438
I1663
aI6
asVenter
p439
(lp440
I1780
aI2
asS'zan'
p441
(lp442
I2191
aI1
asVexecuted
p443
(lp444
I2028
aI1
asVdecide
p445
(lp446
I2388
aI3
asS'lt '
p447
(lp448
I3323
aI1
asVover
p449
(lp450
I626
aI7
asVmurray
p451
(lp452
I3833
aI1
asS' Hi'
p453
(lp454
I2590
aI2
asS'xi'
p455
(lp456
I3071
aI3
asVaffect
p457
(lp458
I3339
aI1
asS' Ha'
p459
(lp460
I76
aI1
asVI'm
p461
(lp462
I1413
aI2
asVbefore
p463
(lp464
I1955
aI4
asS'ima'
p465
(lp466
I651
aI2
asS' Ba'
p467
(lp468
I1885
aI1
asVdifference
p469
(lp470
I2344
aI2
asS'ime'
p471
(lp472
I2877
aI4
asS'osi'
p473
(lp474
I2981
aI2
asS'oly'
p475
(lp476
I3525
aI1
asS'cle'
p477
(lp478
I1846
aI2
asS'imm'
p479
(lp480
I2566
aI1
asV,
p481
(lp482
I518
aI14
asVwriting
p483
(lp484
I3358
aI1
asS'imp'
p485
(lp486
I2292
aI4
asS'ims'
p487
(lp488
I2859
aI1
asS'fig'
p489
(lp490
I2648
aI1
asS'fie'
p491
(lp492
I3860
aI1
asS'l p'
p493
(lp494
I3845
aI1
asS'fin'
p495
(lp496
I934
aI25
asS'Hin'
p497
(lp498
I2591
aI2
asVthen
p499
(lp500
I2202
aI1
asVthem
p501
(lp502
I321
aI3
asS'ona'
p503
(lp504
I1868
aI12
asVaffected
p505
(lp506
I1470
aI2
asVdiseases
p507
(lp508
I3
aI8
asS' Vi'
p509
(lp510
I3303
aI1
asS'Lux'
p511
(lp512
I3426
aI1
asVsafe
p513
(lp514
I2765
aI6
asV10965
p515
(lp516
I2787
aI1
asVthey
p517
(lp518
I2201
aI2
asS'xe'
p519
(lp520
I1738
aI5
asS's 1'
p521
(lp522
I3341
aI1
asS'im '
p523
(lp524
I2687
aI5
asVSchoenberg
p525
(lp526
I2455
aI1
asVIndia
p527
(lp528
I572
aI4
asS'l'
p529
(lp530
I93
aI752
asVgood
p531
(lp532
I1368
aI17
asS'ya'
p533
(lp534
I1625
aI6
asVside
p535
(lp536
I1255
aI5
asVmean
p537
(lp538
I1033
aI7
asVElton
p539
(lp540
I2516
aI1
asS'nt?'
p541
(lp542
I2543
aI1
asS'h p'
p543
(lp544
I3196
aI1
asS'Wor'
p545
(lp546
I308
aI41
asVhanged
p547
(lp548
I1913
aI1
asS'nt.'
p549
(lp550
I2547
aI3
asS'nt!'
p551
(lp552
I3467
aI1
asS'nt '
p553
(lp554
I236
aI108
asS'nt"'
p555
(lp556
I565
aI1
asVsounds
p557
(lp558
I3622
aI1
asS'osm'
p559
(lp560
I3437
aI1
asS'rt'
p561
(lp562
I933
aI53
asS'ru'
p563
(lp564
I332
aI34
asS'goo'
p565
(lp566
I1370
aI17
asS'rw'
p567
(lp568
I1831
aI1
asS'goi'
p569
(lp570
I1104
aI15
asS'at '
p571
(lp572
I126
aI188
asS'rs'
p573
(lp574
I350
aI74
asVopen
p575
(lp576
I3776
aI1
asS'ry'
p577
(lp578
I583
aI32
asS'Bas'
p579
(lp580
I1886
aI1
asVtomorrow
p581
(lp582
I2988
aI2
asS'rd'
p583
(lp584
I1406
aI2
asS're'
p585
(lp586
I170
aI481
asS'on-'
p587
(lp588
I3481
aI1
asS'rg'
p589
(lp590
I526
aI26
asS'ra'
p591
(lp592
I108
aI122
asS'rb'
p593
(lp594
I1504
aI6
asS'rc'
p595
(lp596
I2206
aI3
asS'rl'
p597
(lp598
I184
aI62
asS'rm'
p599
(lp600
I1548
aI17
asS'rn'
p601
(lp602
I846
aI27
asS'ro'
p603
(lp604
I357
aI101
asS'ri'
p605
(lp606
I180
aI156
asS'gos'
p607
(lp608
I2874
aI5
asS'rk'
p609
(lp610
I1011
aI31
asS'nty'
p611
(lp612
I3139
aI1
asVAntarctica
p613
(lp614
I3623
aI1
asS'Egy'
p615
(lp616
I1932
aI2
asS'ial'
p617
(lp618
I2555
aI1
asS'nts'
p619
(lp620
I1184
aI29
asS'ntr'
p621
(lp622
I242
aI41
asS'nti'
p623
(lp624
I1311
aI17
asS'nth'
p625
(lp626
I3316
aI1
asS'W'
p627
(lp628
I87
aI298
asS'nta'
p629
(lp630
I2052
aI8
asS'oso'
p631
(lp632
I1775
aI2
asS'nie'
p633
(lp634
I3775
aI1
asS'nte'
p635
(lp636
I665
aI14
asS'ate'
p637
(lp638
I377
aI26
asS'atc'
p639
(lp640
I2245
aI2
asVcreated
p641
(lp642
I1074
aI5
asS'iss'
p643
(lp644
I2623
aI3
asS'ato'
p645
(lp646
I1895
aI3
asS'r?'
p647
(lp648
I1797
aI4
asS'go '
p649
(lp650
I487
aI8
asS'ath'
p651
(lp652
I1218
aI42
asS'ati'
p653
(lp654
I140
aI55
asS'isk'
p655
(lp656
I2243
aI1
asS'att'
p657
(lp658
I1167
aI2
asS'atu'
p659
(lp660
I678
aI8
asS'r '
p661
(lp662
I113
aI278
asS'ats'
p663
(lp664
I3420
aI1
asS'ism'
p665
(lp666
I301
aI23
asS'isa'
p667
(lp668
I2297
aI1
asS't!'
p669
(lp670
I3466
aI2
asS' Sp'
p671
(lp672
I3268
aI1
asS'ise'
p673
(lp674
I67
aI18
asS'sm '
p675
(lp676
I302
aI21
asS'nhe'
p677
(lp678
I3183
aI1
asS'gy '
p679
(lp680
I1301
aI1
asVhearing
p681
(lp682
I2327
aI1
asS'Y'
p683
(lp684
I1702
aI12
asVBuddhism
p685
(lp686
I567
aI17
asS' St'
p687
(lp688
I2396
aI1
asS'nis'
p689
(lp690
I1457
aI6
asS'199'
p691
(lp692
I2752
aI1
asS'tem'
p693
(lp694
I674
aI10
asS'xic'
p695
(lp696
I3297
aI2
asVservice
p697
(lp698
I1643
aI1
asS'tor'
p699
(lp700
I1535
aI10
asS'Com'
p701
(lp702
I3110
aI2
asS'top'
p703
(lp704
I646
aI9
asS'equ'
p705
(lp706
I3146
aI1
asS'tow'
p707
(lp708
I803
aI4
asS'xis'
p709
(lp710
I3074
aI1
asS'ton'
p711
(lp712
I2343
aI6
asS"i'"
p713
(lp714
I2471
aI1
asS'tol'
p715
(lp716
I3524
aI1
asS'tom'
p717
(lp718
I2989
aI5
asS'toc'
p719
(lp720
I3821
aI1
asVHaiti
p721
(lp722
I5
aI1
asVjohn
p723
(lp724
I434
aI6
asS'tod'
p725
(lp726
I1919
aI3
asVAlexander
p727
(lp728
I954
aI24
asS' lg'
p729
(lp730
I3361
aI1
asS' le'
p731
(lp732
I1331
aI31
asS'B'
p733
(lp734
I573
aI29
asVavatar
p735
(lp736
I3638
aI1
asS' la'
p737
(lp738
I947
aI6
asS' lo'
p739
(lp740
I503
aI58
asVMacedonians
p741
(lp742
I2438
aI1
asS'euk'
p743
(lp744
I3400
aI1
asS'ads'
p745
(lp746
I2289
aI3
asS' li'
p747
(lp748
I1422
aI22
asVjapanese
p749
(lp750
I2148
aI4
asS' lu'
p751
(lp752
I3557
aI1
asS' lt'
p753
(lp754
I2845
aI1
asVwestern
p755
(lp756
I2204
aI1
asS'gyp'
p757
(lp758
I1933
aI3
asS'fil'
p759
(lp760
I3532
aI1
asS'cri'
p761
(lp762
I3809
aI1
asVroles
p763
(lp764
I3381
aI1
asVburger
p765
(lp766
I3817
aI1
asS'Ott'
p767
(lp768
I3041
aI2
asVnations
p769
(lp770
I3047
aI5
asS'Vi'
p771
(lp772
I2374
aI2
asS'to '
p773
(lp774
I392
aI194
asVmini
p775
(lp776
I1903
aI1
asVmetis
p777
(lp778
I2945
aI1
asS'rab'
p779
(lp780
I1874
aI6
asS'ran'
p781
(lp782
I563
aI60
asVboston
p783
(lp784
I2337
aI3
asS'ral'
p785
(lp786
I1284
aI6
asVmodern
p787
(lp788
I1807
aI2
asS'ty '
p789
(lp790
I792
aI10
asS'rai'
p791
(lp792
I1223
aI16
asS'rav'
p793
(lp794
I1313
aI6
asS'. l'
p795
(lp796
I2817
aI1
asS'rat'
p797
(lp798
I139
aI24
asS'm u'
p799
(lp800
I2407
aI1
asS'. i'
p801
(lp802
I879
aI3
asS'ras'
p803
(lp804
I3517
aI1
asS'rsh'
p805
(lp806
I1334
aI2
asS'bs '
p807
(lp808
I3307
aI1
asVWilliams
p809
(lp810
I435
aI8
asS'rsi'
p811
(lp812
I789
aI10
asVimplemented
p813
(lp814
I3787
aI1
asS'Ke'
p815
(lp816
I3059
aI1
asS'ypt'
p817
(lp818
I1934
aI3
asVEgyptian
p819
(lp820
I1923
aI1
asS'x s'
p821
(lp822
I3489
aI1
asS'do '
p823
(lp824
I701
aI32
asVMozart
p825
(lp826
I2270
aI8
asS'-'
p827
(lp828
I3473
aI2
asS'. S'
p829
(lp830
I3017
aI1
asVsubjects
p831
(lp832
I3258
aI1
asS'nbe'
p833
(lp834
I2465
aI1
asVforces
p835
(lp836
I2193
aI1
asS'Asi'
p837
(lp838
I2637
aI6
asS'Ash'
p839
(lp840
I3601
aI2
asS'ypn'
p841
(lp842
I2978
aI1
asS'hun'
p843
(lp844
I664
aI12
asS'. C'
p845
(lp846
I2479
aI1
asS'lp '
p847
(lp848
I2646
aI1
asS'ra '
p849
(lp850
I2364
aI1
asS'bst'
p851
(lp852
I3728
aI1
asS'y'
p853
(lp854
I326
aI263
asValan
p855
(lp856
I1599
aI3
asVletter
p857
(lp858
I2312
aI4
asS'bse'
p859
(lp860
I3134
aI1
asS'typ'
p861
(lp862
I3477
aI1
asVthe
p863
(lp864
I82
aI637
asS'abe'
p865
(lp866
I3718
aI1
asVslides
p867
(lp868
I3160
aI1
asS'don'
p869
(lp870
I1349
aI7
asS'doc'
p871
(lp872
I3842
aI1
asS'm'
p873
(lp874
I288
aI600
asVdog
p875
(lp876
I3574
aI2
asS'doe'
p877
(lp878
I1016
aI19
asS'm e'
p879
(lp880
I2688
aI5
asS'abi'
p881
(lp882
I2286
aI1
asS'oka'
p883
(lp884
I2498
aI3
asS'lpe'
p885
(lp886
I1304
aI1
asS'rke'
p887
(lp888
I2949
aI1
asS'dow'
p889
(lp890
I3008
aI1
asVconfederation
p891
(lp892
I249
aI1
asS'dou'
p893
(lp894
I3389
aI1
asS'sul'
p895
(lp896
I3322
aI1
asS' Wa'
p897
(lp898
I309
aI40
asS' Wo'
p899
(lp900
I307
aI40
asS'd"'
p901
(lp902
I3450
aI4
asS'd '
p903
(lp904
I186
aI413
asS' Wi'
p905
(lp906
I470
aI19
asS'd?'
p907
(lp908
I1076
aI4
asS'nea'
p909
(lp910
I1884
aI9
asVtoast
p911
(lp912
I1956
aI4
asS'ock'
p913
(lp914
I3104
aI2
asS' US'
p915
(lp916
I2897
aI1
asS'em '
p917
(lp918
I420
aI4
asS'oca'
p919
(lp920
I3814
aI1
asVmenu
p921
(lp922
I735
aI1
asVwill
p923
(lp924
I3577
aI2
asVmens
p925
(lp926
I3416
aI1
asS'hro'
p927
(lp928
I2725
aI10
asS'hri'
p929
(lp930
I2082
aI4
asS'ba '
p931
(lp932
I3523
aI1
asS'hre'
p933
(lp934
I1722
aI5
asVtwo
p935
(lp936
I3345
aI2
asS'oct'
p937
(lp938
I2435
aI10
asVdo
p939
(lp940
I681
aI98
asS'dm'
p941
(lp942
I1441
aI6
asS'dh'
p943
(lp944
I581
aI17
asS'di'
p945
(lp946
I37
aI137
asS'dd'
p947
(lp948
I580
aI23
asS'de'
p949
(lp950
I261
aI84
asVstop
p951
(lp952
I623
aI4
asS'da'
p953
(lp954
I1918
aI5
asS'dy'
p955
(lp956
I1626
aI7
asS'du'
p957
(lp958
I178
aI42
asS'dr'
p959
(lp960
I1037
aI17
asS'ds'
p961
(lp962
I1493
aI38
asVpinatas
p963
(lp964
I3815
aI1
asS'eme'
p965
(lp966
I2871
aI2
asS'bat'
p967
(lp968
I3827
aI1
asS'ak '
p969
(lp970
I2939
aI2
asS'ema'
p971
(lp972
I3169
aI3
asVcountries
p973
(lp974
I166
aI17
asVMediterranean
p975
(lp976
I1856
aI1
asVbad
p977
(lp978
I2544
aI4
asS'emp'
p979
(lp980
I675
aI36
asS'ems'
p981
(lp982
I2970
aI2
asS'ban'
p983
(lp984
I3687
aI1
asS'op '
p985
(lp986
I647
aI5
asS'Rie'
p987
(lp988
I270
aI6
asS'om '
p989
(lp990
I425
aI21
asVdecides
p991
(lp992
I1474
aI1
asVquestions
p993
(lp994
I3166
aI3
asS'w '
p995
(lp996
I329
aI147
asS'Per'
p997
(lp998
I1323
aI10
asVChristianity
p999
(lp1000
I2059
aI4
asS'nun'
p1001
(lp1002
I2350
aI1
asS'num'
p1003
(lp1004
I405
aI1
asVresult
p1005
(lp1006
I3321
aI1
asS' I '
p1007
(lp1008
I1426
aI5
asVJohn
p1009
(lp1010
I86
aI14
asS'azi'
p1011
(lp1012
I2837
aI1
asVbest
p1013
(lp1014
I2763
aI4
asS'02'
p1015
(lp1016
I2803
aI1
asS'00'
p1017
(lp1018
I2802
aI4
asVsaid
p1019
(lp1020
I864
aI2
asVRun
p1021
(lp1022
I1731
aI2
asS'i k'
p1023
(lp1024
I3862
aI1
asS'mus'
p1025
(lp1026
I1144
aI30
asVcoats
p1027
(lp1028
I3418
aI1
asS'irp'
p1029
(lp1030
I1088
aI5
asS'irs'
p1031
(lp1032
I1142
aI6
asS'irt'
p1033
(lp1034
I1683
aI2
asS'iru'
p1035
(lp1036
I367
aI19
asVartificial
p1037
(lp1038
I2548
aI1
asS'un '
p1039
(lp1040
I1742
aI1
asS'0 '
p1041
(lp1042
I3204
aI2
asS'm E'
p1043
(lp1044
I3710
aI1
asS'irl'
p1045
(lp1046
I3172
aI1
asS'muc'
p1047
(lp1048
I1013
aI30
asS'iro'
p1049
(lp1050
I2715
aI2
asS'ira'
p1051
(lp1052
I138
aI1
asS'smo'
p1053
(lp1054
I3490
aI1
asS'ird'
p1055
(lp1056
I2653
aI1
asS'ire'
p1057
(lp1058
I990
aI48
asS'omb'
p1059
(lp1060
I3726
aI1
asS'oma'
p1061
(lp1062
I998
aI14
asVlanguages
p1063
(lp1064
I2416
aI1
asVCentral
p1065
(lp1066
I3694
aI1
asS'ome'
p1067
(lp1068
I1057
aI9
asS'Exa'
p1069
(lp1070
I3376
aI1
asS'wo'
p1071
(lp1072
I183
aI38
asS'wn'
p1073
(lp1074
I2265
aI4
asS' Is'
p1075
(lp1076
I3034
aI8
asS' It'
p1077
(lp1078
I2213
aI1
asS'Sam'
p1079
(lp1080
I3199
aI1
asS'wi'
p1081
(lp1082
I1246
aI15
asS'wh'
p1083
(lp1084
I668
aI138
asVtoothbrush
p1085
(lp1086
I3747
aI1
asS'omp'
p1087
(lp1088
I479
aI28
asS'ws'
p1089
(lp1090
I2905
aI2
asS' Im'
p1091
(lp1092
I717
aI7
asS' In'
p1093
(lp1094
I618
aI4
asS'wth'
p1095
(lp1096
I2076
aI2
asS'cos'
p1097
(lp1098
I1020
aI6
asS'f B'
p1099
(lp1100
I3386
aI1
asS'unt'
p1101
(lp1102
I241
aI33
asS'han'
p1103
(lp1104
I994
aI6
asS'unv'
p1105
(lp1106
I3722
aI1
asS'cov'
p1107
(lp1108
I1976
aI1
asVcountry
p1109
(lp1110
I1377
aI5
asS'ill'
p1111
(lp1112
I472
aI12
asS'ilm'
p1113
(lp1114
I3533
aI1
asVmariachi
p1115
(lp1116
I1988
aI1
asS'ilk'
p1117
(lp1118
I2964
aI1
asVagainst
p1119
(lp1120
I248
aI2
asS'ili'
p1121
(lp1122
I2599
aI2
asS'coa'
p1123
(lp1124
I2972
aI2
asVtoday's
p1125
(lp1126
I2506
aI1
asVColtrane
p1127
(lp1128
I3567
aI1
asS'unc'
p1129
(lp1130
I1460
aI3
asS'und'
p1131
(lp1132
I1330
aI19
asS' IM'
p1133
(lp1134
I3285
aI1
asS'ung'
p1135
(lp1136
I1068
aI9
asS'ir '
p1137
(lp1138
I402
aI6
asS'uni'
p1139
(lp1140
I786
aI6
asS'm I'
p1141
(lp1142
I2959
aI1
asS'com'
p1143
(lp1144
I478
aI37
asS'Arn'
p1145
(lp1146
I2458
aI1
asS'coo'
p1147
(lp1148
I830
aI8
asS'con'
p1149
(lp1150
I278
aI33
asVand
p1151
(lp1152
I285
aI106
asVtone
p1153
(lp1154
I3357
aI1
asS' ma'
p1155
(lp1156
I742
aI23
asS' mo'
p1157
(lp1158
I1511
aI14
asS' mi'
p1159
(lp1160
I1772
aI16
asS' mu'
p1161
(lp1162
I1012
aI64
asVviruses
p1163
(lp1164
I312
aI16
asS'ks,'
p1165
(lp1166
I2832
aI1
asVAlexander's
p1167
(lp1168
I3803
aI1
asVspeak
p1169
(lp1170
I2936
aI2
asS'fre'
p1171
(lp1172
I552
aI14
asVobserving
p1173
(lp1174
I3129
aI1
asS'fri'
p1175
(lp1176
I1366
aI20
asS'sal'
p1177
(lp1178
I3866
aI1
asS'fro'
p1179
(lp1180
I423
aI22
asVthree
p1181
(lp1182
I1718
aI4
asVquickly
p1183
(lp1184
I570
aI3
asS'rno'
p1185
(lp1186
I2459
aI1
asVmuch
p1187
(lp1188
I1001
aI30
asS'emb'
p1189
(lp1190
I3429
aI1
asVtallest
p1191
(lp1192
I2334
aI3
asS'ai '
p1193
(lp1194
I3504
aI1
asS'sis'
p1195
(lp1196
I2982
aI1
asS'k a'
p1197
(lp1198
I1609
aI9
asVlife
p1199
(lp1200
I1978
aI2
asS'k c'
p1201
(lp1202
I1791
aI6
asS'k d'
p1203
(lp1204
I1712
aI1
asS'k f'
p1205
(lp1206
I3021
aI1
asVattacked
p1207
(lp1208
I1154
aI1
asS'k i'
p1209
(lp1210
I3703
aI1
asS'k o'
p1211
(lp1212
I1482
aI6
asS'k s'
p1213
(lp1214
I3608
aI1
asS'k t'
p1215
(lp1216
I1681
aI8
asS'k v'
p1217
(lp1218
I3128
aI1
asS'k w'
p1219
(lp1220
I2226
aI1
asS'k y'
p1221
(lp1222
I3756
aI1
asS'har'
p1223
(lp1224
I1408
aI2
asS'k A'
p1225
(lp1226
I3825
aI1
asS'Ci'
p1227
(lp1228
I3584
aI2
asS'a 1'
p1229
(lp1230
I1755
aI1
asS'Co'
p1231
(lp1232
I696
aI12
asS'1 r'
p1233
(lp1234
I1389
aI1
asS'ait'
p1235
(lp1236
I78
aI3
asS'Ca'
p1237
(lp1238
I2476
aI5
asS'1 w'
p1239
(lp1240
I3255
aI1
asS'1 t'
p1241
(lp1242
I2931
aI2
asS'air'
p1243
(lp1244
I1087
aI11
asS'ail'
p1245
(lp1246
I1521
aI6
asVnear
p1247
(lp1248
I2473
aI2
asS'1 i'
p1249
(lp1250
I228
aI2
asS'sli'
p1251
(lp1252
I2685
aI7
asS'aid'
p1253
(lp1254
I884
aI2
asS'1 a'
p1255
(lp1256
I1276
aI5
asS'sla'
p1257
(lp1258
I3036
aI8
asS'1 e'
p1259
(lp1260
I3054
aI1
asS'a J'
p1261
(lp1262
I3561
aI1
asVseven
p1263
(lp1264
I2865
aI1
asS'iz'
p1265
(lp1266
I1579
aI4
asS'ip'
p1267
(lp1268
I1322
aI9
asS'is'
p1269
(lp1270
I21
aI361
asS'ir'
p1271
(lp1272
I107
aI93
asS'iu'
p1273
(lp1274
I3735
aI1
asS'it'
p1275
(lp1276
I46
aI109
asVdefeated
p1277
(lp1278
I1155
aI1
asS'iv'
p1279
(lp1280
I776
aI19
asS'py '
p1281
(lp1282
I2050
aI5
asS'ik'
p1283
(lp1284
I894
aI25
asS'ij'
p1285
(lp1286
I3326
aI1
asS'im'
p1287
(lp1288
I634
aI17
asS'il'
p1289
(lp1290
I448
aI39
asS'io'
p1291
(lp1292
I32
aI106
asVin
p1293
(lp1294
I4
aI572
asS'ia'
p1295
(lp1296
I450
aI71
asS'n y'
p1297
(lp1298
I640
aI10
asS'ic'
p1299
(lp1300
I337
aI106
asS'ib'
p1301
(lp1302
I2068
aI7
asS'ie'
p1303
(lp1304
I177
aI63
asS'id'
p1305
(lp1306
I444
aI114
asS'ig'
p1307
(lp1308
I1825
aI23
asS'if'
p1309
(lp1310
I190
aI16
asVmuseums
p1311
(lp1312
I2689
aI1
asS'dhi'
p1313
(lp1314
I596
aI17
asS'ops'
p1315
(lp1316
I3365
aI2
asVDarcy
p1317
(lp1318
I3233
aI1
asS'"W'
p1319
(lp1320
I3537
aI1
asVbig
p1321
(lp1322
I1896
aI3
asS'iA'
p1323
(lp1324
I895
aI11
asVcolonies
p1325
(lp1326
I3774
aI1
asS'th '
p1327
(lp1328
I1745
aI8
asS'nin'
p1329
(lp1330
I1739
aI3
asS'nio'
p1331
(lp1332
I2890
aI1
asS'nim'
p1333
(lp1334
I650
aI2
asVtyphoid
p1335
(lp1336
I3471
aI1
asS'nic'
p1337
(lp1338
I3793
aI1
asS'nia'
p1339
(lp1340
I2446
aI1
asVrain
p1341
(lp1342
I3552
aI2
asS'opy'
p1343
(lp1344
I2049
aI7
asS'kin'
p1345
(lp1346
I507
aI49
asS'kil'
p1347
(lp1348
I2713
aI1
asVPersia
p1349
(lp1350
I1315
aI1
asS'i '
p1351
(lp1352
I493
aI182
asS'niv'
p1353
(lp1354
I787
aI2
asS'aka'
p1355
(lp1356
I3019
aI1
asS'nit'
p1357
(lp1358
I2084
aI8
asS'kid'
p1359
(lp1360
I2943
aI1
asS'mbs'
p1361
(lp1362
I3727
aI1
asVjohn's
p1363
(lp1364
I2867
aI1
asVshortly
p1365
(lp1366
I3048
aI1
asS'ope'
p1367
(lp1368
I2237
aI10
asS'Ch'
p1369
(lp1370
I2067
aI9
asS'ept'
p1371
(lp1372
I731
aI9
asS'ths'
p1373
(lp1374
I2728
aI1
asS'thr'
p1375
(lp1376
I1721
aI14
asS'tho'
p1377
(lp1378
I3798
aI1
asS'thm'
p1379
(lp1380
I2813
aI1
asS'a Y'
p1381
(lp1382
I1960
aI1
asVtombstone
p1383
(lp1384
I3721
aI1
asS'thi'
p1385
(lp1386
I1810
aI13
asS'kiA'
p1387
(lp1388
I911
aI11
asVmusical
p1389
(lp1390
I1126
aI5
asS'tha'
p1391
(lp1392
I871
aI17
asS'n h'
p1393
(lp1394
I2493
aI4
asS'o E'
p1395
(lp1396
I3484
aI2
asS'yea'
p1397
(lp1398
I2578
aI2
asS'm"'
p1399
(lp1400
I3539
aI2
asS'rn '
p1401
(lp1402
I1563
aI16
asVverses
p1403
(lp1404
I3098
aI1
asS'opl'
p1405
(lp1406
I2631
aI2
asVArabian
p1407
(lp1408
I2281
aI1
asS'rn?'
p1409
(lp1410
I859
aI2
asVbattles
p1411
(lp1412
I3823
aI1
asVyes
p1413
(lp1414
I1062
aI4
asS'hai'
p1415
(lp1416
I2652
aI2
asS'eli'
p1417
(lp1418
I2609
aI3
asS'elo'
p1419
(lp1420
I2381
aI2
asS'ell'
p1421
(lp1422
I1072
aI71
asS'hab'
p1423
(lp1424
I3717
aI1
asS'o C'
p1425
(lp1426
I2884
aI2
asVhad
p1427
(lp1428
I1762
aI7
asS'ele'
p1429
(lp1430
I706
aI17
asS'ely'
p1431
(lp1432
I920
aI2
asS'hap'
p1433
(lp1434
I3858
aI1
asS'eur'
p1435
(lp1436
I2723
aI2
asS'elp'
p1437
(lp1438
I1303
aI2
asVhas
p1439
(lp1440
I1285
aI4
asS'hat'
p1441
(lp1442
I125
aI162
asS'o N'
p1443
(lp1444
I2780
aI1
asS'hav'
p1445
(lp1446
I827
aI18
asS'lag'
p1447
(lp1448
I3794
aI1
asS'opt'
p1449
(lp1450
I2220
aI2
asS"t's"
p1451
(lp1452
I984
aI10
asS'rni'
p1453
(lp1454
I3651
aI2
asS'opp'
p1455
(lp1456
I1195
aI17
asS'D'
p1457
(lp1458
I1243
aI12
asS'opr'
p1459
(lp1460
I3415
aI1
asS'a k'
p1461
(lp1462
I3152
aI3
asS'n t'
p1463
(lp1464
I945
aI34
asS'n w'
p1465
(lp1466
I1161
aI19
asS'n v'
p1467
(lp1468
I364
aI1
asS'n q'
p1469
(lp1470
I949
aI1
asS'n p'
p1471
(lp1472
I537
aI31
asS'n s'
p1473
(lp1474
I1224
aI20
asS'n r'
p1475
(lp1476
I3367
aI2
asS'n m'
p1477
(lp1478
I744
aI10
asS'n l'
p1479
(lp1480
I1465
aI22
asS'n o'
p1481
(lp1482
I1984
aI9
asS'n n'
p1483
(lp1484
I1542
aI3
asS'n i'
p1485
(lp1486
I1235
aI29
asVnationalists
p1487
(lp1488
I2122
aI2
asS'n e'
p1489
(lp1490
I1329
aI12
asS'n d'
p1491
(lp1492
I229
aI15
asS'n g'
p1493
(lp1494
I3294
aI1
asS'n f'
p1495
(lp1496
I143
aI37
asS'n a'
p1497
(lp1498
I612
aI19
asS'mis'
p1499
(lp1500
I2622
aI3
asS'n c'
p1501
(lp1502
I1557
aI11
asVapart
p1503
(lp1504
I1200
aI2
asS'bro'
p1505
(lp1506
I2676
aI1
asS'a h'
p1507
(lp1508
I936
aI25
asS'a i'
p1509
(lp1510
I1587
aI3
asS'a n'
p1511
(lp1512
I1994
aI3
asS'a o'
p1513
(lp1514
I2491
aI1
asS'a l'
p1515
(lp1516
I3088
aI2
asS'a m'
p1517
(lp1518
I1670
aI8
asS'a b'
p1519
(lp1520
I1325
aI8
asS'a c'
p1521
(lp1522
I807
aI26
asS'el '
p1523
(lp1524
I153
aI36
asVhunt
p1525
(lp1526
I1734
aI2
asS'a f'
p1527
(lp1528
I551
aI17
asS'a g'
p1529
(lp1530
I1369
aI9
asS'a d'
p1531
(lp1532
I2365
aI5
asS'n L'
p1533
(lp1534
I1132
aI1
asS'n N'
p1535
(lp1536
I1707
aI5
asS'n I'
p1537
(lp1538
I2347
aI2
asS'n H'
p1539
(lp1540
I75
aI1
asS'n J'
p1541
(lp1542
I2524
aI1
asS'n E'
p1543
(lp1544
I1000
aI17
asS'a s'
p1545
(lp1546
I1237
aI14
asS'a p'
p1547
(lp1548
I1822
aI11
asS'n F'
p1549
(lp1550
I3335
aI1
asS'a v'
p1551
(lp1552
I1682
aI3
asS'n W'
p1553
(lp1554
I469
aI19
asS'a t'
p1555
(lp1556
I1221
aI14
asS'n B'
p1557
(lp1558
I1186
aI2
asS'ola'
p1559
(lp1560
I3492
aI1
asS'hs '
p1561
(lp1562
I2729
aI1
asS'a a'
p1563
(lp1564
I2720
aI11
asVold
p1565
(lp1566
I2367
aI6
asVtrained
p1567
(lp1568
I2764
aI1
asVkorea
p1569
(lp1570
I3201
aI1
asS' Em'
p1571
(lp1572
I987
aI16
asS'oli'
p1573
(lp1574
I2276
aI2
asVdeaf
p1575
(lp1576
I2326
aI1
asVdead
p1577
(lp1578
I3729
aI1
asS'olo'
p1579
(lp1580
I1298
aI2
asVborn
p1581
(lp1582
I841
aI2
asS' Jo'
p1583
(lp1584
I156
aI14
asS"an'"
p1585
(lp1586
I3280
aI1
asS'olt'
p1587
(lp1588
I3569
aI1
asS'n S'
p1589
(lp1590
I3267
aI1
asS'olv'
p1591
(lp1592
I3659
aI2
asS'so '
p1593
(lp1594
I1936
aI7
asVmultiple
p1595
(lp1596
I3159
aI1
asS' Ja'
p1597
(lp1598
I3245
aI2
asVenemies
p1599
(lp1600
I2662
aI1
asS'ick'
p1601
(lp1602
I608
aI6
asS'fou'
p1603
(lp1604
I1264
aI10
asS'ici'
p1605
(lp1606
I2554
aI1
asS'ich'
p1607
(lp1608
I1262
aI17
asVfor
p1609
(lp1610
I84
aI131
asS'Ara'
p1611
(lp1612
I1873
aI5
asS'ica'
p1613
(lp1614
I385
aI27
asS'fox'
p1615
(lp1616
I1746
aI2
asS'Len'
p1617
(lp1618
I1134
aI1
asS'rki'
p1619
(lp1620
I2719
aI1
asS'ume'
p1621
(lp1622
I1150
aI9
asVeverything
p1623
(lp1624
I2904
aI1
asS'icy'
p1625
(lp1626
I2573
aI1
asS'Hi'
p1627
(lp1628
I2588
aI2
asS'uma'
p1629
(lp1630
I3565
aI2
asS'Ho'
p1631
(lp1632
I327
aI61
asS'umb'
p1633
(lp1634
I406
aI1
asS'ics'
p1635
(lp1636
I2489
aI3
asS'icr'
p1637
(lp1638
I1774
aI3
asS'fon'
p1639
(lp1640
I3413
aI1
asS'foo'
p1641
(lp1642
I514
aI63
asS'icu'
p1643
(lp1644
I3121
aI1
asVAre
p1645
(lp1646
I2501
aI2
asS'ol '
p1647
(lp1648
I462
aI9
asVEurope
p1649
(lp1650
I2205
aI5
asS' Eg'
p1651
(lp1652
I1931
aI2
asS'ced'
p1653
(lp1654
I2443
aI1
asS' Ea'
p1655
(lp1656
I3495
aI1
asS'a r'
p1657
(lp1658
I1668
aI25
asS'ple'
p1659
(lp1660
I916
aI13
asS'pla'
p1661
(lp1662
I1090
aI17
asS'n D'
p1663
(lp1664
I2775
aI1
asS'n G'
p1665
(lp1666
I3224
aI1
asS'pli'
p1667
(lp1668
I3764
aI3
asVtakes
p1669
(lp1670
I2999
aI1
asS'obo'
p1671
(lp1672
I834
aI11
asS'xt'
p1673
(lp1674
I3001
aI1
asS'n A'
p1675
(lp1676
I1871
aI7
asS'ic '
p1677
(lp1678
I1448
aI10
asS'o'
p1679
(lp1680
I11
aI1883
asS'a w'
p1681
(lp1682
I1250
aI3
asVdinner
p1683
(lp1684
I1796
aI2
asS'um '
p1685
(lp1686
I1540
aI4
asS'o m'
p1687
(lp1688
I2736
aI3
asVbook
p1689
(lp1690
I2754
aI1
asVcultural
p1691
(lp1692
I3140
aI1
asS'mbo'
p1693
(lp1694
I3430
aI1
asVstatements
p1695
(lp1696
I2866
aI1
asS'ppe'
p1697
(lp1698
I3011
aI2
asS'sof'
p1699
(lp1700
I1776
aI3
asVcivil
p1701
(lp1702
I1642
aI2
asS'mbe'
p1703
(lp1704
I407
aI1
asS'ppi'
p1705
(lp1706
I1196
aI17
asS'som'
p1707
(lp1708
I1056
aI7
asS'aho'
p1709
(lp1710
I2109
aI1
asS'son'
p1711
(lp1712
I1866
aI5
asS'ahr'
p1713
(lp1714
I3181
aI1
asS'ppr'
p1715
(lp1716
I3414
aI1
asS'sor'
p1717
(lp1718
I3617
aI1
asVmagazines
p1719
(lp1720
I2826
aI1
asS'd 2'
p1721
(lp1722
I1277
aI2
asVdoctrine
p1723
(lp1724
I3840
aI1
asS'ole'
p1725
(lp1726
I3394
aI1
asS'o t'
p1727
(lp1728
I488
aI25
asS'sfe'
p1729
(lp1730
I3465
aI1
asS'wae'
p1731
(lp1732
I2161
aI1
asVpeople
p1733
(lp1734
I2614
aI1
asVcosmetics
p1735
(lp1736
I3436
aI1
asVfight
p1737
(lp1738
I2644
aI1
asVfought
p1739
(lp1740
I1253
aI2
asS'way'
p1741
(lp1742
I2227
aI2
asS'gio'
p1743
(lp1744
I2610
aI2
asS'er '
p1745
(lp1746
I484
aI101
asS'wat'
p1747
(lp1748
I3444
aI2
asVwas
p1749
(lp1750
I81
aI50
asVwar
p1751
(lp1752
I163
aI41
asS'd g'
p1753
(lp1754
I1428
aI5
asS'd f'
p1755
(lp1756
I1429
aI10
asS'd e'
p1757
(lp1758
I2664
aI2
asS'd d'
p1759
(lp1760
I1173
aI8
asS'd c'
p1761
(lp1762
I1996
aI1
asS'd b'
p1763
(lp1764
I1176
aI8
asS'd a'
p1765
(lp1766
I1172
aI44
asS'd o'
p1767
(lp1768
I1061
aI20
asS'oll'
p1769
(lp1770
I2581
aI2
asS'd m'
p1771
(lp1772
I380
aI23
asS'd l'
p1773
(lp1774
I1666
aI8
asS'd j'
p1775
(lp1776
I465
aI3
asS'd i'
p1777
(lp1778
I1185
aI27
asS'd h'
p1779
(lp1780
I1749
aI8
asS'd w'
p1781
(lp1782
I224
aI21
asS'd v'
p1783
(lp1784
I599
aI3
asS'd u'
p1785
(lp1786
I2288
aI5
asS'd t'
p1787
(lp1788
I760
aI67
asS'd s'
p1789
(lp1790
I2078
aI14
asS'd r'
p1791
(lp1792
I1371
aI7
asS'd q'
p1793
(lp1794
I2882
aI1
asS'd p'
p1795
(lp1796
I412
aI6
asVtrue
p1797
(lp1798
I862
aI2
asS'fas'
p1799
(lp1800
I2330
aI1
asS'd G'
p1801
(lp1802
I2215
aI4
asS'd F'
p1803
(lp1804
I1785
aI3
asS'd E'
p1805
(lp1806
I2520
aI1
asS"r's"
p1807
(lp1808
I3812
aI1
asS'd C'
p1809
(lp1810
I2187
aI2
asS'd B'
p1811
(lp1812
I1341
aI11
asS'd A'
p1813
(lp1814
I1207
aI16
asS'd M'
p1815
(lp1816
I2272
aI9
asS'd L'
p1817
(lp1818
I2036
aI2
asS'd J'
p1819
(lp1820
I2941
aI3
asS'd I'
p1821
(lp1822
I3284
aI6
asS'd H'
p1823
(lp1824
I2589
aI1
asS'd W'
p1825
(lp1826
I306
aI46
asVconsidered
p1827
(lp1828
I3290
aI2
asS'azz'
p1829
(lp1830
I2696
aI1
asS'd S'
p1831
(lp1832
I2395
aI3
asS'd R'
p1833
(lp1834
I2641
aI2
asS'd Y'
p1835
(lp1836
I2106
aI1
asS'nno'
p1837
(lp1838
I1136
aI1
asS'b E'
p1839
(lp1840
I3351
aI2
asS'nne'
p1841
(lp1842
I1802
aI2
asS'nna'
p1843
(lp1844
I3850
aI1
asS'uri'
p1845
(lp1846
I214
aI32
asS'15 '
p1847
(lp1848
I1757
aI2
asS"' "
p1849
(lp1850
I2002
aI5
asS'nnu'
p1851
(lp1852
I2349
aI1
asVface
p1853
(lp1854
I3605
aI2
asS"ms'"
p1855
(lp1856
I3592
aI1
asS' 20'
p1857
(lp1858
I2853
aI3
asS'nh'
p1859
(lp1860
I3179
aI1
asS'ni'
p1861
(lp1862
I633
aI28
asS'nj'
p1863
(lp1864
I3686
aI1
asS'nk'
p1865
(lp1866
I3148
aI4
asS'nl'
p1867
(lp1868
I3277
aI1
asS'nn'
p1869
(lp1870
I1129
aI5
asS'no'
p1871
(lp1872
I754
aI70
asS'tit'
p1873
(lp1874
I2254
aI1
asS'na'
p1875
(lp1876
I1486
aI44
asS'tiv'
p1877
(lp1878
I1662
aI4
asS'nc'
p1879
(lp1880
I531
aI46
asS'nd'
p1881
(lp1882
I295
aI165
asS'ne'
p1883
(lp1884
I750
aI139
asS'nf'
p1885
(lp1886
I27
aI25
asS'ng'
p1887
(lp1888
I181
aI204
asS'ny'
p1889
(lp1890
I1345
aI15
asS'tin'
p1891
(lp1892
I948
aI19
asS'tio'
p1893
(lp1894
I60
aI89
asS'ary'
p1895
(lp1896
I2625
aI3
asS'tie'
p1897
(lp1898
I210
aI1
asS'tif'
p1899
(lp1900
I2551
aI1
asS'ns'
p1901
(lp1902
I104
aI79
asS'nt'
p1903
(lp1904
I193
aI285
asS'nu'
p1905
(lp1906
I347
aI4
asS'nv'
p1907
(lp1908
I2314
aI12
asS'tic'
p1909
(lp1910
I1094
aI9
asS"'t"
p1911
(lp1912
I1344
aI8
asS"'s"
p1913
(lp1914
I969
aI18
asS'urr'
p1915
(lp1916
I3835
aI1
asS' no'
p1917
(lp1918
I873
aI14
asS'Lea'
p1919
(lp1920
I1395
aI2
asS' na'
p1921
(lp1922
I1533
aI14
asVeiffel
p1923
(lp1924
I796
aI3
asS' ne'
p1925
(lp1926
I757
aI37
asVArnold
p1927
(lp1928
I2454
aI1
asVimprovisation
p1929
(lp1930
I2290
aI1
asVlet's
p1931
(lp1932
I2130
aI1
asS"'d"
p1933
(lp1934
I1664
aI3
asS'tec'
p1935
(lp1936
I1293
aI1
asS"'m"
p1937
(lp1938
I1415
aI2
asS'St'
p1939
(lp1940
I2394
aI1
asS' nu'
p1941
(lp1942
I404
aI1
asVdied
p1943
(lp1944
I3620
aI1
asS'um'
p1945
(lp1946
I348
aI21
asS'axi'
p1947
(lp1948
I3073
aI1
asVfaster
p1949
(lp1950
I2325
aI1
asS'n.'
p1951
(lp1952
I2475
aI1
asS'n '
p1953
(lp1954
I42
aI360
asS'To '
p1955
(lp1956
I3573
aI1
asS'Wil'
p1957
(lp1958
I471
aI8
asS'Wik'
p1959
(lp1960
I909
aI11
asS'Si'
p1961
(lp1962
I2957
aI1
asS"n'"
p1963
(lp1964
I1130
aI11
asS'n?'
p1965
(lp1966
I847
aI6
asS"y's"
p1967
(lp1968
I2509
aI3
asVEmpire
p1969
(lp1970
I956
aI15
asS't w'
p1971
(lp1972
I127
aI30
asS't v'
p1973
(lp1974
I3289
aI2
asS'lly'
p1975
(lp1976
I388
aI2
asS't t'
p1977
(lp1978
I418
aI109
asS't s'
p1979
(lp1980
I456
aI23
asS'rom'
p1981
(lp1982
I424
aI27
asS'ron'
p1983
(lp1984
I2716
aI2
asS'roo'
p1985
(lp1986
I3409
aI1
asS'osp'
p1987
(lp1988
I150
aI10
asS'rob'
p1989
(lp1990
I833
aI12
asS'rod'
p1991
(lp1992
I2165
aI5
asS'ost'
p1993
(lp1994
I1021
aI12
asS't y'
p1995
(lp1996
I1494
aI16
asS't g'
p1997
(lp1998
I1952
aI10
asS't f'
p1999
(lp2000
I1388
aI21
asS'lli'
p2001
(lp2002
I473
aI10
asS't d'
p2003
(lp2004
I1042
aI21
asS't c'
p2005
(lp2006
I237
aI43
asS'ice'
p2007
(lp2008
I1661
aI3
asS't a'
p2009
(lp2010
I782
aI69
asS't o'
p2011
(lp2012
I50
aI18
asS't n'
p2013
(lp2014
I3170
aI3
asS't m'
p2015
(lp2016
I1043
aI19
asS'ros'
p2017
(lp2018
I1693
aI14
asS'ose'
p2019
(lp2020
I482
aI6
asS'rou'
p2021
(lp2022
I2677
aI12
asS't i'
p2023
(lp2024
I671
aI73
asS'row'
p2025
(lp2026
I2074
aI4
asS't W'
p2027
(lp2028
I3271
aI1
asS'ver'
p2029
(lp2030
I601
aI19
asS't R'
p2031
(lp2032
I2192
aI1
asVhead
p2033
(lp2034
I3076
aI2
asS't P'
p2035
(lp2036
I2678
aI1
asS'gea'
p2037
(lp2038
I2360
aI1
asVfather
p2039
(lp2040
I3095
aI1
asS't Y'
p2041
(lp2042
I2783
aI2
asS't G'
p2043
(lp2044
I2919
aI2
asS'0'
p2045
(lp2046
I2791
aI10
asS'ved'
p2047
(lp2048
I3374
aI3
asS't C'
p2049
(lp2050
I3626
aI1
asS't B'
p2051
(lp2052
I3334
aI1
asS't A'
p2053
(lp2054
I2182
aI2
asS'ven'
p2055
(lp2056
I417
aI7
asS'vel'
p2057
(lp2058
I1314
aI8
asS't L'
p2059
(lp2060
I3151
aI1
asS't J'
p2061
(lp2062
I2306
aI2
asS't I'
p2063
(lp2064
I617
aI2
asS'vei'
p2065
(lp2066
I3724
aI1
asV1991
p2067
(lp2068
I2739
aI1
asS't 2'
p2069
(lp2070
I2747
aI5
asS't 1'
p2071
(lp2072
I2806
aI1
asVCountries
p2073
(lp2074
I3109
aI1
asS'g t'
p2075
(lp2076
I1106
aI22
asS'g u'
p2077
(lp2078
I2541
aI2
asS'g w'
p2079
(lp2080
I218
aI9
asS'g p'
p2081
(lp2082
I2785
aI1
asS'g s'
p2083
(lp2084
I1900
aI3
asS'g l'
p2085
(lp2086
I2468
aI1
asS'g m'
p2087
(lp2088
I1239
aI7
asS'g o'
p2089
(lp2090
I659
aI5
asS'g h'
p2091
(lp2092
I3611
aI2
asS'g i'
p2093
(lp2094
I2247
aI7
asVBedouins
p2095
(lp2096
I3379
aI1
asVjoin
p2097
(lp2098
I1379
aI2
asS'g f'
p2099
(lp2100
I508
aI45
asS'll '
p2101
(lp2102
I904
aI80
asVWhere
p2103
(lp2104
I1697
aI8
asS'g a'
p2105
(lp2106
I1811
aI6
asVcool
p2107
(lp2108
I818
aI8
asS'din'
p2109
(lp2110
I431
aI16
asS'Ha'
p2111
(lp2112
I44
aI1
asS"ey'"
p2113
(lp2114
I2951
aI1
asS'gue'
p2115
(lp2116
I1398
aI8
asVdid
p2117
(lp2118
I433
aI164
asS'die'
p2119
(lp2120
I3371
aI2
asS'dif'
p2121
(lp2122
I230
aI5
asS'ers'
p2123
(lp2124
I409
aI46
asS'dia'
p2125
(lp2126
I621
aI7
asS'lg '
p2127
(lp2128
I3362
aI1
asS'dic'
p2129
(lp2130
I384
aI1
asS'p'
p2131
(lp2132
I90
aI418
asS'Tag'
p2133
(lp2134
I3462
aI1
asS've '
p2135
(lp2136
I829
aI24
asS'dit'
p2137
(lp2138
I1880
aI2
asS'der'
p2139
(lp2140
I282
aI39
asS'dir'
p2141
(lp2142
I2849
aI1
asS'dis'
p2143
(lp2144
I66
aI21
asVprevent
p2145
(lp2146
I320
aI4
asVsalieri
p2147
(lp2148
I3865
aI1
asS' Yo'
p2149
(lp2150
I1710
aI8
asS' Ya'
p2151
(lp2152
I2107
aI1
asVokay
p2153
(lp2154
I2494
aI1
asS'Gre'
p2155
(lp2156
I982
aI16
asS'dev'
p2157
(lp2158
I2380
aI2
asVJane
p2159
(lp2160
I3234
aI1
asS"s' "
p2161
(lp2162
I2009
aI5
asVbacteria
p2163
(lp2164
I2372
aI5
asS'b c'
p2165
(lp2166
I1876
aI1
asS'ss '
p2167
(lp2168
I1695
aI13
asS'bl'
p2169
(lp2170
I1438
aI9
asS'bo '
p2171
(lp2172
I2935
aI1
asVcelebrates
p2173
(lp2174
I1997
aI2
asS'mp'
p2175
(lp2176
I453
aI88
asS'Me'
p2177
(lp2178
I1862
aI1
asS'lem'
p2179
(lp2180
I3650
aI2
asS'r. '
p2181
(lp2182
I2816
aI2
asVtransportation
p2183
(lp2184
I1227
aI3
asS' dy'
p2185
(lp2186
I1636
aI4
asS'gaz'
p2187
(lp2188
I2836
aI1
asS'ht '
p2189
(lp2190
I1268
aI15
asS'Mo'
p2191
(lp2192
I2252
aI10
asVlearn
p2193
(lp2194
I1545
aI14
asVfrench
p2195
(lp2196
I519
aI13
asS'bi'
p2197
(lp2198
I1897
aI4
asS'Mu'
p2199
(lp2200
I2673
aI6
asS' 90'
p2201
(lp2202
I2819
aI1
asS'gle'
p2203
(lp2204
I3251
aI3
asS'O'
p2205
(lp2206
I3030
aI3
asS'Ms'
p2207
(lp2208
I3279
aI1
asVEnglish
p2209
(lp2210
I1546
aI4
asVWars
p2211
(lp2212
I3338
aI1
asValong
p2213
(lp2214
I2954
aI1
asVrefused
p2215
(lp2216
I1378
aI1
asVchange
p2217
(lp2218
I2562
aI3
asS'arc'
p2219
(lp2220
I3243
aI2
asS'Wa'
p2221
(lp2222
I251
aI48
asVspontaneous
p2223
(lp2224
I2045
aI3
asS'bor'
p2225
(lp2226
I857
aI2
asS'bos'
p2227
(lp2228
I2342
aI3
asS'bot'
p2229
(lp2230
I835
aI12
asS'bou'
p2231
(lp2232
I1052
aI74
asS' Ce'
p2233
(lp2234
I3699
aI1
asS' dr'
p2235
(lp2236
I1047
aI4
asS' ip'
p2237
(lp2238
I1904
aI3
asS'bon'
p2239
(lp2240
I3792
aI1
asS'boo'
p2241
(lp2242
I1572
aI4
asS'b n'
p2243
(lp2244
I2183
aI1
asS'eks'
p2245
(lp2246
I2447
aI1
asS' ir'
p2247
(lp2248
I2714
aI2
asVineffectiveness
p2249
(lp2250
I3254
aI1
asS'hbr'
p2251
(lp2252
I3753
aI1
asS'ipa'
p2253
(lp2254
I1905
aI2
asS'oo '
p2255
(lp2256
I2110
aI1
asS'iph'
p2257
(lp2258
I2534
aI1
asS'ipi'
p2259
(lp2260
I2559
aI1
asVprefer
p2261
(lp2262
I771
aI5
asVcompare
p2263
(lp2264
I3528
aI1
asS'ipl'
p2265
(lp2266
I3162
aI2
asS'ipp'
p2267
(lp2268
I2601
aI1
asS'epa'
p2269
(lp2270
I3392
aI1
asVhotels
p2271
(lp2272
I3081
aI4
asVironsmiths
p2273
(lp2274
I2707
aI1
asVtroops
p2275
(lp2276
I3408
aI1
asS' Ke'
p2277
(lp2278
I3061
aI1
asS'msu'
p2279
(lp2280
I2017
aI3
asVRussia
p2281
(lp2282
I3333
aI1
asVlive
p2283
(lp2284
I1701
aI4
asS'ayy'
p2285
(lp2286
I1633
aI5
asViphone
p2287
(lp2288
I2532
aI1
asS'rve'
p2289
(lp2290
I3373
aI1
asVfilms
p2291
(lp2292
I3530
aI1
asS'ul '
p2293
(lp2294
I1946
aI5
asS'ca '
p2295
(lp2296
I1249
aI8
asVtoday
p2297
(lp2298
I1917
aI2
asS' im'
p2299
(lp2300
I2291
aI4
asS'ood'
p2301
(lp2302
I515
aI82
asS'ip '
p2303
(lp2304
I1337
aI2
asVmissionaries
p2305
(lp2306
I3732
aI1
asS' in'
p2307
(lp2308
I54
aI163
asS'F'
p2309
(lp2310
I1781
aI7
asS'ool'
p2311
(lp2312
I461
aI9
asS'ooo'
p2313
(lp2314
I3610
aI1
asS'obl'
p2315
(lp2316
I3649
aI1
asS'ook'
p2317
(lp2318
I505
aI49
asVdowntown
p2319
(lp2320
I3000
aI1
asS'oot'
p2321
(lp2322
I3751
aI1
asS'oop'
p2323
(lp2324
I3410
aI1
asVcases
p2325
(lp2326
I1646
aI1
asVeffort
p2327
(lp2328
I3453
aI1
asS'p i'
p2329
(lp2330
I3801
aI1
asVfly
p2331
(lp2332
I1004
aI4
asS'ibi'
p2333
(lp2334
I2485
aI1
asS'cas'
p2335
(lp2336
I204
aI3
asS'car'
p2337
(lp2338
I2527
aI1
asS"ay'"
p2339
(lp2340
I2508
aI1
asS'flu'
p2341
(lp2342
I2680
aI1
asS'ay '
p2343
(lp2344
I1922
aI4
asS'cau'
p2345
(lp2346
I1431
aI5
asS'cat'
p2347
(lp2348
I2244
aI2
asS'fli'
p2349
(lp2350
I1826
aI6
asS'Lu'
p2351
(lp2352
I3422
aI1
asVcan
p2353
(lp2354
I311
aI61
asS'cam'
p2355
(lp2356
I1328
aI1
asS'cal'
p2357
(lp2358
I386
aI15
asVfollowing
p2359
(lp2360
I2564
aI1
asS'ula'
p2361
(lp2362
I723
aI7
asS'ibu'
p2363
(lp2364
I2092
aI5
asS'uld'
p2365
(lp2366
I1799
aI13
asS'ms '
p2367
(lp2368
I477
aI11
asS' on'
p2369
(lp2370
I816
aI31
asVnearest
p2371
(lp2372
I2790
aI4
asS' ol'
p2373
(lp2374
I2369
aI2
asS' ok'
p2375
(lp2376
I2497
aI1
asS'kyl'
p2377
(lp2378
I852
aI12
asS' of'
p2379
(lp2380
I51
aI89
asS'spr'
p2381
(lp2382
I428
aI74
asS' ob'
p2383
(lp2384
I3132
aI1
asS' oc'
p2385
(lp2386
I2745
aI4
asVagent
p2387
(lp2388
I1675
aI2
asS'spi'
p2389
(lp2390
I136
aI1
asS'spo'
p2391
(lp2392
I1228
aI7
asS' ov'
p2393
(lp2394
I660
aI7
asVUmayyads
p2395
(lp2396
I2282
aI2
asS' ot'
p2397
(lp2398
I1496
aI9
asS' ou'
p2399
(lp2400
I1832
aI4
asS' or'
p2401
(lp2402
I1979
aI8
asS'spe'
p2403
(lp2404
I151
aI15
asS' op'
p2405
(lp2406
I3777
aI1
asS"'t "
p2407
(lp2408
I1351
aI8
asS'Whe'
p2409
(lp2410
I1158
aI20
asS'Wha'
p2411
(lp2412
I124
aI108
asS', '
p2413
(lp2414
I529
aI7
asVWho
p2415
(lp2416
I1473
aI26
asS'Whi'
p2417
(lp2418
I1260
aI9
asV1
p2419
(lp2420
I164
aI73
asS'gh '
p2421
(lp2422
I1026
aI9
asS'jes'
p2423
(lp2424
I3177
aI1
asS'H'
p2425
(lp2426
I19
aI64
asS'gh,'
p2427
(lp2428
I547
aI2
asS's"'
p2429
(lp2430
I2830
aI2
asS's!'
p2431
(lp2432
I1575
aI2
asS's '
p2433
(lp2434
I35
aI450
asS"s'"
p2435
(lp2436
I2001
aI5
asVWhy
p2437
(lp2438
I566
aI80
asS'??'
p2439
(lp2440
I3228
aI23
asVarmies
p2441
(lp2442
I3822
aI1
asS'mar'
p2443
(lp2444
I1989
aI1
asS'mat'
p2445
(lp2446
I1616
aI3
asS'may'
p2447
(lp2448
I1632
aI5
asVAverage
p2449
(lp2450
I2912
aI1
asS'ky '
p2451
(lp2452
I3065
aI1
asS'xpe'
p2453
(lp2454
I3510
aI1
asS'mac'
p2455
(lp2456
I720
aI16
asS'hoe'
p2457
(lp2458
I2462
aI1
asS'mad'
p2459
(lp2460
I2737
aI1
asS'mag'
p2461
(lp2462
I2835
aI1
asS'mai'
p2463
(lp2464
I743
aI5
asVsuch
p2465
(lp2466
I3217
aI1
asS'maj'
p2467
(lp2468
I2605
aI2
asS'mal'
p2469
(lp2470
I652
aI13
asS'man'
p2471
(lp2472
I999
aI23
asS'ght'
p2473
(lp2474
I1267
aI17
asS'sy'
p2475
(lp2476
I1890
aI3
asVnatural
p2477
(lp2478
I1530
aI1
asS'ss'
p2479
(lp2480
I899
aI34
asS'sp'
p2481
(lp2482
I105
aI97
asS'sw'
p2483
(lp2484
I893
aI25
asS'dyn'
p2485
(lp2486
I1637
aI3
asS'su'
p2487
(lp2488
I173
aI23
asS'st'
p2489
(lp2490
I22
aI169
asS'q'
p2491
(lp2492
I574
aI16
asS'hon'
p2493
(lp2494
I2536
aI2
asS'si'
p2495
(lp2496
I777
aI84
asS'sh'
p2497
(lp2498
I736
aI55
asS'so'
p2499
(lp2500
I1040
aI34
asS'sm'
p2501
(lp2502
I292
aI28
asVghc
p2503
(lp2504
I1590
aI4
asS'sc'
p2505
(lp2506
I439
aI4
asS'sb'
p2507
(lp2508
I524
aI21
asS'sa'
p2509
(lp2510
I869
aI18
asS'gho'
p2511
(lp2512
I3038
aI6
asS'sf'
p2513
(lp2514
I1929
aI6
asS'se'
p2515
(lp2516
I38
aI151
asVIslam
p2517
(lp2518
I3027
aI7
asVclothing
p2519
(lp2520
I3124
aI2
asS'Ru'
p2521
(lp2522
I1736
aI2
asS'lse'
p2523
(lp2524
I3195
aI1
asVTagalog
p2525
(lp2526
I3457
aI1
asS'tts'
p2527
(lp2528
I541
aI21
asS'Chi'
p2529
(lp2530
I2329
aI5
asS'no '
p2531
(lp2532
I870
aI7
asS'096'
p2533
(lp2534
I2809
aI1
asVyears
p2535
(lp2536
I2563
aI1
asS'Jan'
p2537
(lp2538
I3246
aI1
asVended
p2539
(lp2540
I3049
aI1
asS'Chr'
p2541
(lp2542
I2081
aI4
asS'tto'
p2543
(lp2544
I3042
aI2
asS'Ra'
p2545
(lp2546
I289
aI1
asS'ttl'
p2547
(lp2548
I3443
aI2
asS'tta'
p2549
(lp2550
I1168
aI1
asS'Ro'
p2551
(lp2552
I973
aI9
asS'Ri'
p2553
(lp2554
I256
aI6
asS'tte'
p2555
(lp2556
I2323
aI4
asS'h, '
p2557
(lp2558
I548
aI2
asS' ab'
p2559
(lp2560
I1050
aI73
asS' ac'
p2561
(lp2562
I2125
aI11
asS' ad'
p2563
(lp2564
I1452
aI8
asS'o,'
p2565
(lp2566
I3628
aI1
asS' af'
p2567
(lp2568
I1213
aI14
asS' ag'
p2569
(lp2570
I273
aI6
asS'jin'
p2571
(lp2572
I3330
aI1
asS' ai'
p2573
(lp2574
I1086
aI7
asS' al'
p2575
(lp2576
I903
aI13
asS' am'
p2577
(lp2578
I500
aI64
asS' an'
p2579
(lp2580
I304
aI85
asS' ap'
p2581
(lp2582
I1210
aI6
asS' ar'
p2583
(lp2584
I901
aI42
asS' as'
p2585
(lp2586
I1114
aI23
asS' at'
p2587
(lp2588
I783
aI8
asS' av'
p2589
(lp2590
I3639
aI1
asVGreeks
p2591
(lp2592
I2439
aI1
asVpolicy
p2593
(lp2594
I2561
aI1
asVWorld
p2595
(lp2596
I286
aI41
asVmain
p2597
(lp2598
I734
aI1
asS'nol'
p2599
(lp2600
I1297
aI2
asS'non'
p2601
(lp2602
I1137
aI6
asS'ls '
p2603
(lp2604
I654
aI2
asS'ppo'
p2605
(lp2606
I2181
aI4
asS'p 1'
p2607
(lp2608
I3205
aI2
asVintroduce
p2609
(lp2610
I2164
aI5
asS'sol'
p2611
(lp2612
I3370
aI1
asS'ert'
p2613
(lp2614
I3006
aI4
asVhappen
p2615
(lp2616
I3854
aI1
asVRome
p2617
(lp2618
I2618
aI1
asVconquer
p2619
(lp2620
I2366
aI2
asVnot
p2621
(lp2622
I861
aI16
asS'ng '
p2623
(lp2624
I217
aI135
asS'now'
p2625
(lp2626
I764
aI34
asS'nop'
p2627
(lp2628
I3598
aI1
asS'nor'
p2629
(lp2630
I2639
aI1
asS'nos'
p2631
(lp2632
I2980
aI1
asS' a '
p2633
(lp2634
I550
aI158
asVname
p2635
(lp2636
I1725
aI4
asVappropriate
p2637
(lp2638
I3412
aI1
asS'h'
p2639
(lp2640
I88
aI1139
asS'sou'
p2641
(lp2642
I3511
aI3
asVquarter
p2643
(lp2644
I930
aI1
asS'em'
p2645
(lp2646
I355
aI50
asS'el'
p2647
(lp2648
I118
aI181
asS'eo'
p2649
(lp2650
I1041
aI9
asS'en'
p2651
(lp2652
I192
aI159
asS'ei'
p2653
(lp2654
I345
aI14
asS'ek'
p2655
(lp2656
I2208
aI9
asS'ee'
p2657
(lp2658
I751
aI43
asS'ed'
p2659
(lp2660
I260
aI117
asS'eg'
p2661
(lp2662
I2769
aI5
asS'ef'
p2663
(lp2664
I774
aI14
asS'ea'
p2665
(lp2666
I39
aI281
asS'ec'
p2667
(lp2668
I29
aI54
asS'eb'
p2669
(lp2670
I688
aI5
asVcatching
p2671
(lp2672
I2239
aI1
asS'ey'
p2673
(lp2674
I2209
aI6
asS'ex'
p2675
(lp2676
I965
aI39
asVyear
p2677
(lp2678
I2953
aI1
asS'eu'
p2679
(lp2680
I1279
aI10
asS'et'
p2681
(lp2682
I898
aI29
asS'ew'
p2683
(lp2684
I1010
aI17
asS'ev'
p2685
(lp2686
I353
aI11
asS'eq'
p2687
(lp2688
I3142
aI1
asS'ep'
p2689
(lp2690
I697
aI10
asS'es'
p2691
(lp2692
I41
aI290
asS'er'
p2693
(lp2694
I169
aI417
asVliving
p2695
(lp2696
I2913
aI1
asVfactors
p2697
(lp2698
I2060
aI1
asVrational
p2699
(lp2700
I3855
aI1
asVlooking
p2701
(lp2702
I489
aI45
asS'blo'
p2703
(lp2704
I2645
aI1
asS'bli'
p2705
(lp2706
I1446
aI3
asS'os '
p2707
(lp2708
I1466
aI12
asVinternet
p2709
(lp2710
I2732
aI1
asS'Joh'
p2711
(lp2712
I157
aI14
asVnon-infectious
p2713
(lp2714
I3472
aI1
asS'bla'
p2715
(lp2716
I1605
aI3
asS'Ker'
p2717
(lp2718
I3062
aI1
asS'c m'
p2719
(lp2720
I3745
aI1
asVeagle
p2721
(lp2722
I3829
aI1
asS'e.'
p2723
(lp2724
I867
aI1
asS'rli'
p2725
(lp2726
I3173
aI1
asS'G'
p2727
(lp2728
I92
aI26
asS'wan'
p2729
(lp2730
I886
aI77
asS'rle'
p2731
(lp2732
I3671
aI1
asS'rld'
p2733
(lp2734
I222
aI60
asS'ort'
p2735
(lp2736
I1230
aI15
asS'lms'
p2737
(lp2738
I3534
aI1
asS'orr'
p2739
(lp2740
I2403
aI5
asS'e '
p2741
(lp2742
I103
aI768
asS'20'
p2743
(lp2744
I2851
aI4
asS'orn'
p2745
(lp2746
I858
aI2
asS'orl'
p2747
(lp2748
I221
aI60
asS'orm'
p2749
(lp2750
I1615
aI5
asS'ork'
p2751
(lp2752
I1032
aI21
asS'ori'
p2753
(lp2754
I1980
aI1
asVconsequences
p2755
(lp2756
I3141
aI1
asS'ore'
p2757
(lp2758
I1358
aI16
asS'orb'
p2759
(lp2760
I1508
aI2
asS'orc'
p2761
(lp2762
I2211
aI1
asS'Bin'
p2763
(lp2764
I3250
aI2
asVlocations
p2765
(lp2766
I3813
aI1
asVDisunion
p2767
(lp2768
I2881
aI1
asVhypnosis
p2769
(lp2770
I2974
aI1
asS'hc '
p2771
(lp2772
I1594
aI2
asVplace
p2773
(lp2774
I1819
aI12
asVinvitation
p2775
(lp2776
I2311
aI8
asS'c g'
p2777
(lp2778
I3599
aI1
asVsupport
p2779
(lp2780
I2171
aI4
asVfirst
p2781
(lp2782
I1125
aI6
asVorigin
p2783
(lp2784
I1977
aI1
asS'oni'
p2785
(lp2786
I2445
aI3
asS'onn'
p2787
(lp2788
I3849
aI1
asS'onl'
p2789
(lp2790
I3282
aI1
asS'onc'
p2791
(lp2792
I728
aI12
asS'xa'
p2793
(lp2794
I966
aI28
asS'onf'
p2795
(lp2796
I279
aI2
asS'ong'
p2797
(lp2798
I1951
aI2
asVAsia
p2799
(lp2800
I2616
aI5
asVone
p2801
(lp2802
I806
aI29
asVthroughout
p2803
(lp2804
I3028
aI6
asS'xy'
p2805
(lp2806
I2015
aI2
asVsimplified
p2807
(lp2808
I3857
aI1
asS'Yah'
p2809
(lp2810
I2108
aI1
asS'onr'
p2811
(lp2812
I3210
aI1
asS'ons'
p2813
(lp2814
I1403
aI21
asS'xp'
p2815
(lp2816
I1958
aI7
asS'onq'
p2817
(lp2818
I2141
aI6
asS'zar'
p2819
(lp2820
I2261
aI9
asS'onw'
p2821
(lp2822
I2717
aI2
asS'ont'
p2823
(lp2824
I1310
aI22
asS'Eur'
p2825
(lp2826
I2235
aI5
asS'iam'
p2827
(lp2828
I475
aI8
asVcity
p2829
(lp2830
I1790
aI4
asVgiven
p2831
(lp2832
I3331
aI1
asS'ian'
p2833
(lp2834
I1117
aI36
asS'iac'
p2835
(lp2836
I1991
aI1
asS'i c'
p2837
(lp2838
I3293
aI2
asV2
p2839
(lp2840
I1256
aI26
asVcomposing
p2841
(lp2842
I3766
aI1
asS'iat'
p2843
(lp2844
I2352
aI2
asS'uke'
p2845
(lp2846
I3401
aI1
asS'Pa'
p2847
(lp2848
I2620
aI2
asVfriend
p2849
(lp2850
I1360
aI7
asVAnnunciation
p2851
(lp2852
I2345
aI1
asS'ry.'
p2853
(lp2854
I3618
aI1
asS'on.'
p2855
(lp2856
I2477
aI1
asS'gia'
p2857
(lp2858
I3830
aI1
asVthat
p2859
(lp2860
I860
aI15
asVpittsburgh
p2861
(lp2862
I517
aI21
asS'on '
p2863
(lp2864
I142
aI53
asVmen's
p2865
(lp2866
I3123
aI1
asS"on'"
p2867
(lp2868
I1138
aI8
asS'za '
p2869
(lp2870
I1586
aI3
asS'ush'
p2871
(lp2872
I3755
aI2
asS'Die'
p2873
(lp2874
I2777
aI1
asS'pno'
p2875
(lp2876
I2979
aI1
asS'gin'
p2877
(lp2878
I1983
aI1
asVthai
p2879
(lp2880
I3503
aI1
asVthan
p2881
(lp2882
I958
aI1
asS'11'
p2883
(lp2884
I2925
aI1
asS'10'
p2885
(lp2886
I2794
aI5
asVtelevision
p2887
(lp2888
I3310
aI1
asS'12'
p2889
(lp2890
I2985
aI3
asV15
p2891
(lp2892
I1751
aI4
asS'14'
p2893
(lp2894
I3683
aI2
asS'19'
p2895
(lp2896
I2742
aI1
asS'ia '
p2897
(lp2898
I1324
aI11
asS'1 '
p2899
(lp2900
I189
aI13
asVIMs
p2901
(lp2902
I3275
aI2
asS'r'
p2903
(lp2904
I91
aI1464
asS'r P'
p2905
(lp2906
I3779
aI1
asVwere
p2907
(lp2908
I159
aI21
asS'pre'
p2909
(lp2910
I414
aI95
asS'ane'
p2911
(lp2912
I1092
aI16
asS'sai'
p2913
(lp2914
I883
aI2
asS'ang'
p2915
(lp2916
I1467
aI18
asS'y.'
p2917
(lp2918
I3616
aI1
asS'san'
p2919
(lp2920
I3797
aI1
asS'sam'
p2921
(lp2922
I2016
aI3
asS'anc'
p2923
(lp2924
I613
aI9
asVpro
p2925
(lp2926
I1669
aI9
asS'ano'
p2927
(lp2928
I3045
aI2
asS'pri'
p2929
(lp2930
I1840
aI3
asS'ani'
p2931
(lp2932
I649
aI8
asS'anj'
p2933
(lp2934
I3688
aI1
asVJapanese
p2935
(lp2936
I3559
aI1
asS'ant'
p2937
(lp2938
I564
aI128
asS'uy '
p2939
(lp2940
I1109
aI25
asS'ans'
p2941
(lp2942
I905
aI22
asS'any'
p2943
(lp2944
I1354
aI14
asS'sat'
p2945
(lp2946
I2298
aI1
asS'Do'
p2947
(lp2948
I1518
aI6
asS'Phi'
p2949
(lp2950
I2598
aI1
asS'Di'
p2951
(lp2952
I1244
aI5
asVwarriors
p2953
(lp2954
I3382
aI1
asS'De'
p2955
(lp2956
I3804
aI1
asS'Da'
p2957
(lp2958
I3237
aI1
asVendangered
p2959
(lp2960
I2448
aI1
asVtake
p2961
(lp2962
I2123
aI2
asS'd n'
p2963
(lp2964
I3247
aI2
asVmany
p2965
(lp2966
I2198
aI5
asS't. '
p2967
(lp2968
I2651
aI1
asS'201'
p2969
(lp2970
I2986
aI2
asS'200'
p2971
(lp2972
I2854
aI2
asVdifferences
p2973
(lp2974
I2094
aI1
asS'an '
p2975
(lp2976
I363
aI107
asS's,'
p2977
(lp2978
I2828
aI3
asS'iwa'
p2979
(lp2980
I3772
aI1
asVprice
p2981
(lp2982
I1835
aI2
asVimmigration
p2983
(lp2984
I2560
aI1
asS' ye'
p2985
(lp2986
I2577
aI2
asS'22 '
p2987
(lp2988
I2749
aI3
asS'???'
p2989
(lp2990
I3229
aI21
asS'cc'
p2991
(lp2992
I1928
aI7
asS'xy '
p2993
(lp2994
I2024
aI2
asS' Le'
p2995
(lp2996
I1133
aI3
asS'uss'
p2997
(lp2998
I3337
aI1
asS' Lo'
p2999
(lp3000
I263
aI10
asS'axy'
p3001
(lp3002
I2023
aI2
asVhungry
p3003
(lp3004
I1063
aI5
asS' Lu'
p3005
(lp3006
I3425
aI1
asVhear
p3007
(lp3008
I2782
aI6
asS'S s'
p3009
(lp3010
I2899
aI1
asVshop
p3011
(lp3012
I2864
aI5
asS'"in'
p3013
(lp3014
I536
aI1
asVshow
p3015
(lp3016
I733
aI1
asVformal
p3017
(lp3018
I3198
aI4
asS'x '
p3019
(lp3020
I3487
aI1
asS'r c'
p3021
(lp3022
I1077
aI16
asVdeveloped
p3023
(lp3024
I2379
aI2
asS'ge '
p3025
(lp3026
I2576
aI4
asS'r e'
p3027
(lp3028
I3454
aI1
asVironworking
p3029
(lp3030
I2702
aI1
asS'dy '
p3031
(lp3032
I3551
aI2
asVAcross
p3033
(lp3034
I1688
aI3
asS'inn'
p3035
(lp3036
I1801
aI2
asVhelp
p3037
(lp3038
I2643
aI1
asS'ith'
p3039
(lp3040
I1744
aI7
asVWikiAnswers
p3041
(lp3042
I889
aI11
asS'Wo'
p3043
(lp3044
I297
aI41
asVsmola
p3045
(lp3046
I3486
aI1
asVmicrsoft
p3047
(lp3048
I2118
aI1
asS'ce '
p3049
(lp3050
I399
aI37
asS'Wi'
p3051
(lp3052
I447
aI19
asS'Wh'
p3053
(lp3054
I95
aI190
asS'. t'
p3055
(lp3056
I2825
aI1
asVonly
p3057
(lp3058
I3273
aI1
asVgoing
p3059
(lp3060
I1097
aI15
asVblack
p3061
(lp3062
I1600
aI3
asS'd y'
p3063
(lp3064
I2370
aI8
asS'r h'
p3065
(lp3066
I662
aI8
asS'ino'
p3067
(lp3068
I2638
aI1
asS"et'"
p3069
(lp3070
I2131
aI1
asS'ges'
p3071
(lp3072
I1766
aI3
asS' pr'
p3073
(lp3074
I413
aI22
asS'r j'
p3075
(lp3076
I3730
aI1
asS' pu'
p3077
(lp3078
I1443
aI4
asVget
p3079
(lp3080
I1500
aI12
asVLouis
p3081
(lp3082
I246
aI9
asVjazz
p3083
(lp3084
I2692
aI1
asS'. w'
p3085
(lp3086
I3786
aI1
asS'dys'
p3087
(lp3088
I2659
aI2
asS' pa'
p3089
(lp3090
I941
aI23
asS'ssi'
p3091
(lp3092
I1969
aI11
asS"y'"
p3093
(lp3094
I2507
aI3
asS' pe'
p3095
(lp3096
I2628
aI2
asS'ged'
p3097
(lp3098
I1915
aI1
asS'sse'
p3099
(lp3100
I2655
aI1
asS' pi'
p3101
(lp3102
I538
aI30
asS'ssf'
p3103
(lp3104
I1943
aI5
asS' po'
p3105
(lp3106
I2571
aI3
asS'gen'
p3107
(lp3108
I1687
aI6
asVcelebrate
p3109
(lp3110
I682
aI2
asS' pl'
p3111
(lp3112
I1122
aI15
asS'ult'
p3113
(lp3114
I3120
aI8
asVdon't
p3115
(lp3116
I1342
aI6
asS'cid'
p3117
(lp3118
I1480
aI5
asS'mon'
p3119
(lp3120
I3112
aI4
asVwhere
p3121
(lp3122
I749
aI55
asVdeclared
p3123
(lp3124
I3841
aI1
asVconcert
p3125
(lp3126
I2998
aI3
asVmultiplied
p3127
(lp3128
I3856
aI1
asS'rmy'
p3129
(lp3130
I1768
aI5
asS'kem'
p3131
(lp3132
I3402
aI1
asS'cin'
p3133
(lp3134
I2413
aI1
asS'rma'
p3135
(lp3136
I1556
aI10
asVrme
p3137
(lp3138
I2495
aI2
asS'fol'
p3139
(lp3140
I2580
aI1
asS'rmi'
p3141
(lp3142
I3826
aI1
asS'ffe'
p3143
(lp3144
I232
aI13
asS'utr'
p3145
(lp3146
I1283
aI2
asVways
p3147
(lp3148
I2200
aI2
asS'uxe'
p3149
(lp3150
I3427
aI1
asVvaccines
p3151
(lp3152
I2409
aI1
asS'cip'
p3153
(lp3154
I2558
aI1
asS'yth'
p3155
(lp3156
I2911
aI1
asVbetween
p3157
(lp3158
I2095
aI2
asS'cot'
p3159
(lp3160
I3761
aI1
asVacross
p3161
(lp3162
I2203
aI9
asS'fir'
p3163
(lp3164
I1141
aI6
asS'tur'
p3165
(lp3166
I679
aI14
asS'cit'
p3167
(lp3168
I1792
aI4
asS'Cit'
p3169
(lp3170
I3589
aI2
asS'jo'
p3171
(lp3172
I446
aI13
asS'ji'
p3173
(lp3174
I3327
aI1
asS'iw'
p3175
(lp3176
I3770
aI1
asS'tua'
p3177
(lp3178
I1685
aI2
asS'tuc'
p3179
(lp3180
I3227
aI1
asVcome
p3181
(lp3182
I2361
aI1
asS'ja'
p3183
(lp3184
I2149
aI5
asS' be'
p3185
(lp3186
I371
aI27
asS'uf'
p3187
(lp3188
I2040
aI1
asS' ba'
p3189
(lp3190
I2377
aI9
asV22
p3191
(lp3192
I2738
aI6
asS' bl'
p3193
(lp3194
I1604
aI4
asS' bo'
p3195
(lp3196
I856
aI10
asS' bi'
p3197
(lp3198
I1898
aI2
asS'Rus'
p3199
(lp3200
I3336
aI1
asS' bu'
p3201
(lp3202
I1108
aI32
asS's'
p3203
(lp3204
I8
aI1217
asS' br'
p3205
(lp3206
I2675
aI2
asS' by'
p3207
(lp3208
I1177
aI6
asVsynoptic
p3209
(lp3210
I3595
aI1
asVcan't
p3211
(lp3212
I3272
aI1
asVnearby
p3213
(lp3214
I3083
aI2
asS'6'
p3215
(lp3216
I2792
aI1
asS'r J'
p3217
(lp3218
I3591
aI1
asS'por'
p3219
(lp3220
I1229
aI14
asS'pos'
p3221
(lp3222
I481
aI7
asS'cla'
p3223
(lp3224
I3223
aI3
asS'pon'
p3225
(lp3226
I2051
aI3
asS'Ant'
p3227
(lp3228
I3624
aI1
asS'pol'
p3229
(lp3230
I2572
aI1
asS'ius'
p3231
(lp3232
I3739
aI1
asS'65'
p3233
(lp3234
I2797
aI1
asVlearning
p3235
(lp3236
I3645
aI2
asVMozart's
p3237
(lp3238
I2250
aI1
asS'wri'
p3239
(lp3240
I2317
aI8
asS'fic'
p3241
(lp3242
I2553
aI1
asS'tud'
p3243
(lp3244
I3549
aI2
asS'o c'
p3245
(lp3246
I2140
aI12
asVporsche
p3247
(lp3248
I2922
aI2
asVairlines
p3249
(lp3250
I3171
aI1
asS'if '
p3251
(lp3252
I3194
aI2
asS'Bud'
p3253
(lp3254
I593
aI17
asVshopping
p3255
(lp3256
I1192
aI16
asVhung
p3257
(lp3258
I2734
aI1
asS'yza'
p3259
(lp3260
I2190
aI1
asS'niu'
p3261
(lp3262
I3738
aI1
asS'"n'
p3263
(lp3264
I3627
aI1
asVsound
p3265
(lp3266
I3509
aI2
asS'eir'
p3267
(lp3268
I401
aI5
asS'eit'
p3269
(lp3270
I3184
aI1
asVthese
p3271
(lp3272
I3165
aI3
asS' Or'
p3273
(lp3274
I3669
aI1
asS"n't"
p3275
(lp3276
I1350
aI8
asS't, '
p3277
(lp3278
I3543
aI1
asVSpain
p3279
(lp3280
I3259
aI1
asVDoctrine
p3281
(lp3282
I2428
aI1
asS"n's"
p3283
(lp3284
I1139
aI3
asVshops
p3285
(lp3286
I3364
aI1
asS'eij'
p3287
(lp3288
I3328
aI1
asS'eil'
p3289
(lp3290
I3725
aI1
asS'ein'
p3291
(lp3292
I658
aI3
asS'ive'
p3293
(lp3294
I788
aI16
asS', m'
p3295
(lp3296
I2834
aI2
asS'I w'
p3297
(lp3298
I2503
aI2
asS', i'
p3299
(lp3300
I3632
aI1
asS'oks'
p3301
(lp3302
I1573
aI3
asS', a'
p3303
(lp3304
I549
aI2
asS"'d "
p3305
(lp3306
I1665
aI3
asS'I c'
p3307
(lp3308
I1427
aI3
asVsomeone
p3309
(lp3310
I1036
aI2
asS'e j'
p3311
(lp3312
I2153
aI1
asS', u'
p3313
(lp3314
I3451
aI1
asVtechnology
p3315
(lp3316
I1286
aI1
asVallegheny
p3317
(lp3318
I3135
aI1
asVworry
p3319
(lp3320
I3276
aI1
asS'rwe'
p3321
(lp3322
I1834
aI1
asS' Me'
p3323
(lp3324
I1878
aI1
asVdifferent
p3325
(lp3326
I165
aI2
asS'e h'
p3327
(lp3328
I1727
aI11
asS', H'
p3329
(lp3330
I3544
aI1
asVinquire
p3331
(lp3332
I1908
aI2
asVpay
p3333
(lp3334
I3309
aI2
asS'yn'
p3335
(lp3336
I1627
aI4
asS'mmo'
p3337
(lp3338
I3111
aI2
asS'ory'
p3339
(lp3340
I1536
aI1
asS'e f'
p3341
(lp3342
I711
aI43
asS'pad'
p3343
(lp3344
I1906
aI2
asS' Mr'
p3345
(lp3346
I2400
aI4
asS'e g'
p3347
(lp3348
I1162
aI21
asS'"i'
p3349
(lp3350
I521
aI3
asS'I '
p3351
(lp3352
I1425
aI8
asS'Sil'
p3353
(lp3354
I2963
aI1
asS'uic'
p3355
(lp3356
I607
aI3
asS'oin'
p3357
(lp3358
I1105
aI17
asS'e e'
p3359
(lp3360
I798
aI11
asVsee
p3361
(lp3362
I3094
aI4
asS'I'
p3363
(lp3364
I575
aI55
asS'e b'
p3365
(lp3366
I2346
aI11
asS'oid'
p3367
(lp3368
I3480
aI1
asS'e c'
p3369
(lp3370
I202
aI36
asS'IM'
p3371
(lp3372
I3278
aI1
asS'"i '
p3373
(lp3374
I2831
aI2
asS'yy'
p3375
(lp3376
I1624
aI5
asVmodes
p3377
(lp3378
I2511
aI1
asS'24.'
p3379
(lp3380
I2823
aI1
asVexpression
p3381
(lp3382
I1954
aI5
asVIs
p3383
(lp3384
I2537
aI32
asS'It'
p3385
(lp3386
I2207
aI1
asS'yz'
p3387
(lp3388
I2186
aI1
asS'Im'
p3389
(lp3390
I690
aI7
asVbottle
p3391
(lp3392
I3440
aI1
asS'In'
p3393
(lp3394
I589
aI8
asS'cce'
p3395
(lp3396
I1941
aI6
asS'nb'
p3397
(lp3398
I2457
aI1
asS's h'
p3399
(lp3400
I838
aI3
asS'Uma'
p3401
(lp3402
I1631
aI3
asS' qu'
p3403
(lp3404
I605
aI7
asVbeing
p3405
(lp3406
I625
aI2
asS'am '
p3407
(lp3408
I501
aI65
asS'ps '
p3409
(lp3410
I3366
aI2
asS'e y'
p3411
(lp3412
I2242
aI4
asS's j'
p3413
(lp3414
I2492
aI3
asVactions
p3415
(lp3416
I2121
aI2
asS'e v'
p3417
(lp3418
I1524
aI5
asVaspect
p3419
(lp3420
I3378
aI1
asS'yp'
p3421
(lp3422
I1927
aI5
asS's l'
p3423
(lp3424
I1716
aI4
asS'nam'
p3425
(lp3426
I1726
aI4
asVspeed
p3427
(lp3428
I3153
aI2
asVhunted
p3429
(lp3430
I627
aI1
asS'Log'
p3431
(lp3432
I3448
aI1
asVdeath
p3433
(lp3434
I1202
aI2
asS'w O'
p3435
(lp3436
I3668
aI1
asS'tim'
p3437
(lp3438
I2876
aI4
asS'cl'
p3439
(lp3440
I1839
aI11
asS'yt'
p3441
(lp3442
I2906
aI2
asVinstrument
p3443
(lp3444
I1127
aI3
asS' ge'
p3445
(lp3446
I1506
aI9
asS'cey'
p3447
(lp3448
I2398
aI1
asS's b'
p3449
(lp3450
I370
aI4
asS'ami'
p3451
(lp3452
I3636
aI2
asVaround
p3453
(lp3454
I3469
aI1
asS'amo'
p3455
(lp3456
I3519
aI1
asS'mos'
p3457
(lp3458
I2043
aI4
asS'mor'
p3459
(lp3460
I1357
aI6
asS'gra'
p3461
(lp3462
I2570
aI2
asS'ame'
p3463
(lp3464
I510
aI14
asS'mou'
p3465
(lp3466
I2892
aI3
asS'pse'
p3467
(lp3468
I3356
aI1
asS'yno'
p3469
(lp3470
I3597
aI1
asS'rit'
p3471
(lp3472
I2177
aI14
asS's f'
p3473
(lp3474
I655
aI14
asVvacuum
p3475
(lp3476
I1836
aI2
asVworld
p3477
(lp3478
I162
aI19
asS'ams'
p3479
(lp3480
I476
aI11
asVwalk
p3481
(lp3482
I3696
aI1
asS'nr'
p3483
(lp3484
I3209
aI1
asS'moe'
p3485
(lp3486
I3520
aI1
asS'mod'
p3487
(lp3488
I1814
aI3
asVkenyan
p3489
(lp3490
I2417
aI1
asS'cy'
p3491
(lp3492
I2565
aI3
asS'tia'
p3493
(lp3494
I1935
aI5
asS't'
p3495
(lp3496
I9
aI1880
asVserved
p3497
(lp3498
I3369
aI1
asVtower
p3499
(lp3500
I797
aI3
asS'nw'
p3501
(lp3502
I2710
aI2
asVintestinal
p3503
(lp3504
I3512
aI1
asS'y b'
p3505
(lp3506
I1571
aI7
asS'y c'
p3507
(lp3508
I793
aI13
asS'y a'
p3509
(lp3510
I900
aI13
asS'y f'
p3511
(lp3512
I1024
aI6
asS'y g'
p3513
(lp3514
I2223
aI3
asS'y d'
p3515
(lp3516
I699
aI30
asS'y e'
p3517
(lp3518
I3216
aI2
asS'y k'
p3519
(lp3520
I2942
aI1
asS'y h'
p3521
(lp3522
I1067
aI7
asS'y i'
p3523
(lp3524
I611
aI15
asS'y n'
p3525
(lp3526
I1867
aI2
asS'y o'
p3527
(lp3528
I2594
aI4
asS'y l'
p3529
(lp3530
I3253
aI1
asS'y m'
p3531
(lp3532
I1537
aI3
asS'y r'
p3533
(lp3534
I3324
aI1
asS'y s'
p3535
(lp3536
I2025
aI9
asS'y p'
p3537
(lp3538
I2755
aI2
asS'y q'
p3539
(lp3540
I604
aI1
asS'y v'
p3541
(lp3542
I3099
aI2
asS'y w'
p3543
(lp3544
I1280
aI8
asS'y t'
p3545
(lp3546
I390
aI10
asS'y u'
p3547
(lp3548
I921
aI1
asS'sen'
p3549
(lp3550
I3733
aI2
asS'E'
p3551
(lp3552
I962
aI32
asVMary
p3553
(lp3554
I3445
aI1
asS'y B'
p3555
(lp3556
I591
aI3
asS'Med'
p3557
(lp3558
I1879
aI1
asS' ch'
p3559
(lp3560
I808
aI43
asS' ci'
p3561
(lp3562
I1652
aI6
asS' co'
p3563
(lp3564
I238
aI105
asS' cl'
p3565
(lp3566
I1845
aI9
asS'uck'
p3567
(lp3568
I1529
aI1
asVhighest
p3569
(lp3570
I3067
aI1
asS' ca'
p3571
(lp3572
I203
aI38
asVAnswers
p3573
(lp3574
I2097
aI1
asS' ce'
p3575
(lp3576
I704
aI10
asS'ddi'
p3577
(lp3578
I1964
aI6
asS'ddh'
p3579
(lp3580
I595
aI17
asS'rpo'
p3581
(lp3582
I1515
aI4
asS' cr'
p3583
(lp3584
I1078
aI6
asS'ct'
p3585
(lp3586
I30
aI47
asV911
p3587
(lp3588
I2923
aI2
asS'mur'
p3589
(lp3590
I3834
aI1
asS' cu'
p3591
(lp3592
I3143
aI3
asVIslamic
p3593
(lp3594
I3635
aI1
asS's I'
p3595
(lp3596
I3219
aI1
asVcelled
p3597
(lp3598
I3513
aI1
asVleadership
p3599
(lp3600
I1318
aI2
asVStacey
p3601
(lp3602
I2387
aI1
asS's M'
p3603
(lp3604
I3015
aI3
asS'oo'
p3605
(lp3606
I442
aI144
asS'on'
p3607
(lp3608
I109
aI243
asS'om'
p3609
(lp3610
I358
aI87
asS'ol'
p3611
(lp3612
I443
aI25
asS'ok'
p3613
(lp3614
I496
aI53
asS'oi'
p3615
(lp3616
I1100
aI18
asS'oh'
p3617
(lp3618
I122
aI21
asS'og'
p3619
(lp3620
I1289
aI5
asVof
p3621
(lp3622
I1
aI181
asS'oe'
p3623
(lp3624
I1008
aI25
asS'od'
p3625
(lp3626
I498
aI152
asS'oc'
p3627
(lp3628
I2431
aI9
asS'ob'
p3629
(lp3630
I822
aI13
asS'oa'
p3631
(lp3632
I1959
aI7
asS'e S'
p3633
(lp3634
I2961
aI1
asS'acr'
p3635
(lp3636
I2232
aI9
asS'oz'
p3637
(lp3638
I2253
aI9
asS'acu'
p3639
(lp3640
I721
aI9
asS'ox'
p3641
(lp3642
I1737
aI2
asS'ow'
p3643
(lp3644
I328
aI145
asS'ov'
p3645
(lp3646
I637
aI9
asS'ou'
p3647
(lp3648
I33
aI249
asS'ot'
p3649
(lp3650
I824
aI77
asS'os'
p3651
(lp3652
I116
aI58
asS'or'
p3653
(lp3654
I112
aI222
asS'op'
p3655
(lp3656
I631
aI58
asVgreat's
p3657
(lp3658
I1152
aI3
asVlands
p3659
(lp3660
I3572
aI1
asS'uil'
p3661
(lp3662
I1597
aI3
asVinstruments
p3663
(lp3664
I1179
aI6
asVspreading
p3665
(lp3666
I323
aI7
asS'Ne'
p3667
(lp3668
I1703
aI9
asVYahoo
p3669
(lp3670
I2096
aI1
asS' sy'
p3671
(lp3672
I1892
aI3
asS'yya'
p3673
(lp3674
I1634
aI5
asS'Sc'
p3675
(lp3676
I2456
aI2
asVbubonic
p3677
(lp3678
I3788
aI1
asVyour
p3679
(lp3680
I1359
aI23
asS'loc'
p3681
(lp3682
I3103
aI2
asS'log'
p3683
(lp3684
I1299
aI2
asS'her'
p3685
(lp3686
I768
aI121
asS'hes'
p3687
(lp3688
I2995
aI8
asVweekend
p3689
(lp3690
I3579
aI2
asVthere
p3691
(lp3692
I2502
aI6
asS'lon'
p3693
(lp3694
I1950
aI3
asS'loo'
p3695
(lp3696
I504
aI46
asVlos
p3697
(lp3698
I1462
aI22
asS'lop'
p3699
(lp3700
I2382
aI2
asS'hea'
p3701
(lp3702
I2333
aI9
asS'lot'
p3703
(lp3704
I2994
aI9
asS'hel'
p3705
(lp3706
I1302
aI2
asS'hem'
p3707
(lp3708
I419
aI4
asS'hen'
p3709
(lp3710
I1159
aI19
asS'hei'
p3711
(lp3712
I400
aI6
asS'o B'
p3713
(lp3714
I3839
aI1
asVentamoeba
p3715
(lp3716
I3515
aI1
asS'uin'
p3717
(lp3718
I3390
aI1
asVcontinents
p3719
(lp3720
I1307
aI11
asS'deo'
p3721
(lp3722
I2842
aI1
asS'J'
p3723
(lp3724
I94
aI18
asS'na '
p3725
(lp3726
I2885
aI5
asS'agl'
p3727
(lp3728
I3831
aI1
asVfoxes
p3729
(lp3730
I1733
aI2
asS'wal'
p3731
(lp3732
I3704
aI1
asVwith
p3733
(lp3734
I1732
aI5
asS'n-'
p3735
(lp3736
I3474
aI1
asS'l l'
p3737
(lp3738
I2152
aI2
asS'g-g'
p3739
(lp3740
I3678
aI1
asVEastern
p3741
(lp3742
I3493
aI1
asS' si'
p3743
(lp3744
I1271
aI8
asS'he '
p3745
(lp3746
I132
aI287
asVName
p3747
(lp3748
I3652
aI1
asS'Ave'
p3749
(lp3750
I2915
aI1
asVBlues
p3751
(lp3752
I1180
aI1
asVbeliefs
p3753
(lp3754
I2857
aI1
asVexpect
p3755
(lp3756
I3508
aI1
asS'ohn'
p3757
(lp3758
I158
aI21
asS'ab'
p3759
(lp3760
I1038
aI80
asS'ae'
p3761
(lp3762
I2160
aI1
asS'ad'
p3763
(lp3764
I360
aI118
asS'ag'
p3765
(lp3766
I258
aI19
asS'af'
p3767
(lp3768
I1205
aI21
asS'ai'
p3769
(lp3770
I45
aI46
asS'ah'
p3771
(lp3772
I2100
aI2
asS'rvi'
p3773
(lp3774
I1659
aI2
asS'aj'
p3775
(lp3776
I2604
aI2
asS'am'
p3777
(lp3778
I451
aI158
asS'al'
p3779
(lp3780
I175
aI86
asS'an'
p3781
(lp3782
I294
aI421
asS'ap'
p3783
(lp3784
I1204
aI13
asS'as'
p3785
(lp3786
I40
aI109
asS'ar'
p3787
(lp3788
I187
aI222
asS'au'
p3789
(lp3790
I534
aI53
asS'at'
p3791
(lp3792
I97
aI402
asS'av'
p3793
(lp3794
I821
aI25
asS'ay'
p3795
(lp3796
I1623
aI14
asS'ax'
p3797
(lp3798
I2014
aI3
asS'az'
p3799
(lp3800
I2693
aI2
asS'igr'
p3801
(lp3802
I2569
aI2
asS'ige'
p3803
(lp3804
I2556
aI1
asS'5'
p3805
(lp3806
I1753
aI3
asS'4. '
p3807
(lp3808
I2824
aI1
asS'obs'
p3809
(lp3810
I3133
aI1
asVyou
p3811
(lp3812
I622
aI101
asS'yor'
p3813
(lp3814
I1031
aI5
asS'igi'
p3815
(lp3816
I1982
aI3
asS'igh'
p3817
(lp3818
I1828
aI15
asS'a '
p3819
(lp3820
I530
aI194
asVGreat
p3821
(lp3822
I1689
aI7
asS"at'"
p3823
(lp3824
I983
aI8
asS'f y'
p3825
(lp3826
I3406
aI1
asVtime
p3827
(lp3828
I2875
aI4
asS'rv'
p3829
(lp3830
I1647
aI3
asVimportant
p3831
(lp3832
I3546
aI1
asVrecent
p3833
(lp3834
I3555
aI1
asS'rp'
p3835
(lp3836
I1083
aI6
asVbuilding
p3837
(lp3838
I1591
aI3
asS'rr'
p3839
(lp3840
I1863
aI9
asVLogos
p3841
(lp3842
I3447
aI1
asS'US '
p3843
(lp3844
I2898
aI1
asS'f f'
p3845
(lp3846
I3693
aI1
asS'u'
p3847
(lp3848
I16
aI705
asS'Bri'
p3849
(lp3850
I2176
aI6
asS'ig '
p3851
(lp3852
I1899
aI1
asS'l g'
p3853
(lp3854
I3736
aI1
asS'f a'
p3855
(lp3856
I1483
aI8
asS'ig-'
p3857
(lp3858
I3677
aI1
asS'alo'
p3859
(lp3860
I2960
aI2
asS'all'
p3861
(lp3862
I387
aI37
asS'sch'
p3863
(lp3864
I458
aI3
asS'pti'
p3865
(lp3866
I732
aI11
asS'ali'
p3867
(lp3868
I1870
aI10
asVcaused
p3869
(lp3870
I1430
aI4
asS'pte'
p3871
(lp3872
I2221
aI1
asS'ale'
p3873
(lp3874
I2635
aI2
asS'-ga'
p3875
(lp3876
I3679
aI1
asS'ala'
p3877
(lp3878
I1601
aI5
asVfounded
p3879
(lp3880
I1617
aI5
asS'2 2'
p3881
(lp3882
I2852
aI3
asS'o I'
p3883
(lp3884
I3712
aI1
asS'f l'
p3885
(lp3886
I1985
aI5
asS'Byz'
p3887
(lp3888
I2189
aI1
asS'alt'
p3889
(lp3890
I208
aI2
asS'als'
p3891
(lp3892
I653
aI3
asS'alp'
p3893
(lp3894
I3714
aI1
asS'gr'
p3895
(lp3896
I1065
aI27
asS'hy '
p3897
(lp3898
I590
aI41
asS' '
p3899
(lp3900
I10
aI4514
asS'-g'
p3901
(lp3902
I3676
aI1
asS'f n'
p3903
(lp3904
I3050
aI3
asS'ys'
p3905
(lp3906
I1891
aI6
asVByzantine
p3907
(lp3908
I2184
aI1
asVhunting
p3909
(lp3910
I2450
aI2
asS'ty'
p3911
(lp3912
I778
aI23
asVtv
p3913
(lp3914
I3360
aI3
asS'tw'
p3915
(lp3916
I2098
aI3
asS'tt'
p3917
(lp3918
I522
aI32
asS'tu'
p3919
(lp3920
I669
aI19
asS'tr'
p3921
(lp3922
I196
aI91
asS'ts'
p3923
(lp3924
I523
aI68
asVto
p3925
(lp3926
I316
aI442
asS'tl'
p3927
(lp3928
I2251
aI4
asS'th'
p3929
(lp3930
I101
aI418
asS'ti'
p3931
(lp3932
I31
aI146
asVumayyads
p3933
(lp3934
I3563
aI1
asS'Eas'
p3935
(lp3936
I3496
aI1
asS'te'
p3937
(lp3938
I334
aI219
asS'oss'
p3939
(lp3940
I1694
aI12
asS'ta'
p3941
(lp3942
I533
aI108
asS'l o'
p3943
(lp3944
I154
aI9
asS'l n'
p3945
(lp3946
I2481
aI2
asS'l m'
p3947
(lp3948
I1073
aI70
asS'edi'
p3949
(lp3950
I383
aI3
asS'l k'
p3951
(lp3952
I2267
aI2
asS'smi'
p3953
(lp3954
I2727
aI1
asS'l i'
p3955
(lp3956
I940
aI18
asS'l h'
p3957
(lp3958
I1523
aI4
asVvery
p3959
(lp3960
I569
aI4
asS'mpo'
p3961
(lp3962
I480
aI7
asS'mpl'
p3963
(lp3964
I915
aI8
asS'l d'
p3965
(lp3966
I463
aI5
asS'l c'
p3967
(lp3968
I2526
aI3
asS'l a'
p3969
(lp3970
I272
aI12
asS'mpi'
p3971
(lp3972
I989
aI45
asS'fah'
p3973
(lp3974
I3180
aI1
asS'mpu'
p3975
(lp3976
I1110
aI19
asS'mpr'
p3977
(lp3978
I2293
aI1
asS'gy'
p3979
(lp3980
I1290
aI4
asS'fal'
p3981
(lp3982
I1209
aI4
asVfall
p3983
(lp3984
I1199
aI3
asS'l w'
p3985
(lp3986
I2901
aI3
asS'fac'
p3987
(lp3988
I2087
aI5
asVticket
p3989
(lp3990
I1082
aI2
asS'l t'
p3991
(lp3992
I802
aI12
asS'l s'
p3993
(lp3994
I1656
aI2
asS'l r'
p3995
(lp3996
I831
aI8
asS'yna'
p3997
(lp3998
I1638
aI3
asS't?'
p3999
(lp4000
I1771
aI4
asS'is '
p4001
(lp4002
I267
aI135
asS' Na'
p4003
(lp4004
I1401
aI5
asS'f R'
p4005
(lp4006
I1740
aI1
asS' Ne'
p4007
(lp4008
I1708
aI9
asS'ge'
p4009
(lp4010
I972
aI36
asS't.'
p4011
(lp4012
I2546
aI5
asS't,'
p4013
(lp4014
I3538
aI1
asS'sma'
p4015
(lp4016
I3344
aI1
asS"t'"
p4017
(lp4018
I968
aI10
asS't"'
p4019
(lp4020
I535
aI2
asS't '
p4021
(lp4022
I23
aI507
asS't b'
p4023
(lp4024
I2335
aI2
asS'tel'
p4025
(lp4026
I919
aI103
asS'ga'
p4027
(lp4028
I259
aI12
asVfoundation
p4029
(lp4030
I3780
aI1
asS'tea'
p4031
(lp4032
I2437
aI2
asS' u'
p4033
(lp4034
I775
aI30
asS'ted'
p4035
(lp4036
I378
aI20
asS'rop'
p4037
(lp4038
I2048
aI15
asVtitles
p4039
(lp4040
I2249
aI1
asS"r'"
p4041
(lp4042
I3805
aI1
asS'ter'
p4043
(lp4044
I795
aI56
asS'tes'
p4045
(lp4046
I2003
aI6
asS'lla'
p4047
(lp4048
I3353
aI1
asVImmaculate
p4049
(lp4050
I684
aI7
asVaddition
p4051
(lp4052
I3707
aI1
asVjesus
p4053
(lp4054
I3174
aI1
asS'suf'
p4055
(lp4056
I2041
aI1
asVwhat
p4057
(lp4058
I666
aI37
asS'gl'
p4059
(lp4060
I1550
aI8
asS'suc'
p4061
(lp4062
I1939
aI7
asS'sub'
p4063
(lp4064
I3262
aI2
asS'sua'
p4065
(lp4066
I206
aI1
asVclock
p4067
(lp4068
I3102
aI1
asS'sun'
p4069
(lp4070
I2018
aI4
asS'ast'
p4071
(lp4072
I714
aI13
asS'abl'
p4073
(lp4074
I3091
aI1
asS'abo'
p4075
(lp4076
I1051
aI73
asS'f F'
p4077
(lp4078
I2669
aI1
asS'sus'
p4079
(lp4080
I2007
aI3
asS'rov'
p4081
(lp4082
I2294
aI1
asS'sup'
p4083
(lp4084
I2179
aI4
asVlearned
p4085
(lp4086
I2302
aI1
asS't h'
p4087
(lp4088
I2515
aI8
asVpublic
p4089
(lp4090
I1433
aI3
asS' ru'
p4091
(lp4092
I3078
aI1
asVwaether
p4093
(lp4094
I2159
aI1
asS'te '
p4095
(lp4096
I710
aI21
asS' s6'
p4097
(lp4098
I2026
aI1
asS'K'
p4099
(lp4100
I3057
aI1
asS'eif'
p4101
(lp4102
I800
aI3
asVanswers
p4103
(lp4104
I888
aI9
asS' re'
p4105
(lp4106
I394
aI64
asVcompose
p4107
(lp4108
I3759
aI1
asS' ra'
p4109
(lp4110
I3553
aI4
asS' An'
p4111
(lp4112
I2112
aI3
asS' rm'
p4113
(lp4114
I2500
aI1
asS' ro'
p4115
(lp4116
I832
aI17
asS' ri'
p4117
(lp4118
I1850
aI5
asS'ab '
p4119
(lp4120
I1875
aI4
asS'900'
p4121
(lp4122
I2820
aI1
asVhunts
p4123
(lp4124
I3674
aI1
asS' ax'
p4125
(lp4126
I3072
aI1
asS' Ar'
p4127
(lp4128
I1872
aI6
asVairport
p4129
(lp4130
I1503
aI3
asVgear
p4131
(lp4132
I2359
aI1
asS'yst'
p4133
(lp4134
I1894
aI2
asS'vic'
p4135
(lp4136
I1660
aI1
asS'o F'
p4137
(lp4138
I3431
aI1
asS'o G'
p4139
(lp4140
I1552
aI1
asS'o A'
p4141
(lp4142
I2111
aI1
asS'vid'
p4143
(lp4144
I2841
aI1
asS'rks'
p4145
(lp4146
I1450
aI1
asS' Je'
p4147
(lp4148
I2004
aI2
asVafrica
p4149
(lp4150
I2703
aI1
asS'vio'
p4151
(lp4152
I2274
aI1
asS'vil'
p4153
(lp4154
I1655
aI3
asS'vir'
p4155
(lp4156
I366
aI19
asVask
p4157
(lp4158
I1607
aI13
asS'vit'
p4159
(lp4160
I2320
aI9
asS'S '
p4161
(lp4162
I2896
aI1
asS'giv'
p4163
(lp4164
I1613
aI4
asS'o d'
p4165
(lp4166
I1046
aI7
asS'o e'
p4167
(lp4168
I769
aI32
asS'o f'
p4169
(lp4170
I1022
aI13
asS'o g'
p4171
(lp4172
I1526
aI8
asS'o a'
p4173
(lp4174
I1527
aI20
asS'o b'
p4175
(lp4176
I1107
aI26
asS'twe'
p4177
(lp4178
I2103
aI2
asS'o l'
p4179
(lp4180
I1949
aI4
asS'aso'
p4181
(lp4182
I1865
aI3
asS'o n'
p4183
(lp4184
I1028
aI2
asS'o o'
p4185
(lp4186
I2505
aI2
asS'o h'
p4187
(lp4188
I1352
aI4
asS'o i'
p4189
(lp4190
I1362
aI19
asS'o j'
p4191
(lp4192
I1392
aI2
asS'o k'
p4193
(lp4194
I761
aI30
asVRomans
p4195
(lp4196
I1157
aI1
asS'mme'
p4197
(lp4198
I2341
aI8
asS'o v'
p4199
(lp4200
I1713
aI5
asS'o w'
p4201
(lp4202
I2029
aI13
asS'o p'
p4203
(lp4204
I2037
aI9
asS'o q'
p4205
(lp4206
I3507
aI2
asS'o r'
p4207
(lp4208
I393
aI6
asS'o s'
p4209
(lp4210
I1937
aI23
asS'de '
p4211
(lp4212
I1274
aI10
asS'In '
p4213
(lp4214
I2958
aI2
asS'o y'
p4215
(lp4216
I702
aI18
asVminor
p4217
(lp4218
I2617
aI1
asVmore
p4219
(lp4220
I3439
aI1
asVturbo
p4221
(lp4222
I2924
aI1
asVknows
p4223
(lp4224
I2903
aI2
asVPhilippines
p4225
(lp4226
I2595
aI1
asS'Sp'
p4227
(lp4228
I3261
aI1
asS'5 s'
p4229
(lp4230
I2812
aI1
asS'ivi'
p4231
(lp4232
I1654
aI3
asVantibiotics
p4233
(lp4234
I2482
aI1
asS'rk '
p4235
(lp4236
I1481
aI14
asS'5 i'
p4237
(lp4238
I1758
aI2
asVknown
p4239
(lp4240
I2264
aI1
asS'Sa'
p4241
(lp4242
I2768
aI3
asS' do'
p4243
(lp4244
I700
aI59
asS'ey '
p4245
(lp4246
I2231
aI5
asS' di'
p4247
(lp4248
I65
aI108
asS' de'
p4249
(lp4250
I1174
aI15
asS'des'
p4251
(lp4252
I1419
aI7
asS'Fr'
p4253
(lp4254
I1783
aI7
asS'dop'
p4255
(lp4256
I2219
aI1
asVmall
p4257
(lp4258
I1236
aI6
asS'I a'
p4259
(lp4260
I2870
aI3
asS'den'
p4261
(lp4262
I1376
aI4
asS'v'
p4263
(lp4264
I324
aI114
asS'Ind'
p4265
(lp4266
I619
aI4
asS'dea'
p4267
(lp4268
I1217
aI4
asS' du'
p4269
(lp4270
I212
aI32
asS'dec'
p4271
(lp4272
I1478
aI7
asS'ded'
p4273
(lp4274
I1628
aI8
asS'kly'
p4275
(lp4276
I610
aI3
asS'def'
p4277
(lp4278
I1175
aI1
asVhistory
p4279
(lp4280
I1531
aI1
asVshark
p4281
(lp4282
I3126
aI1
asVstrathmore
p4283
(lp4284
I2788
aI1
asS'Do '
p4285
(lp4286
I1551
aI1
asS'ps'
p4287
(lp4288
I3348
aI3
asS'f '
p4289
(lp4290
I25
aI92
asVnumbers
p4291
(lp4292
I319
aI1
asVHinduism
p4293
(lp4294
I2587
aI2
asS'pai'
p4295
(lp4296
I3270
aI1
asVairplane
p4297
(lp4298
I1081
aI2
asS'ist'
p4299
(lp4300
I48
aI18
asS'l y'
p4301
(lp4302
I2530
aI1
asVaxis
p4303
(lp4304
I3070
aI1
asV!
p4305
(lp4306
I1574
aI2
asVinformation
p4307
(lp4308
I1611
aI1
asS'isi'
p4309
(lp4310
I3315
aI1
asS'Yor'
p4311
(lp4312
I1711
aI8
asS'ish'
p4313
(lp4314
I1569
aI15
asS'iso'
p4315
(lp4316
I2405
aI1
asS'ryt'
p4317
(lp4318
I2910
aI1
asS'fr'
p4319
(lp4320
I356
aI56
asS'fs'
p4321
(lp4322
I2858
aI2
asS'ft'
p4323
(lp4324
I1206
aI15
asS'fu'
p4325
(lp4326
I1383
aI8
asS'Doc'
p4327
(lp4328
I2434
aI1
asVList
p4329
(lp4330
I0
aI2
asS'par'
p4331
(lp4332
I942
aI26
asS'Doe'
p4333
(lp4334
I1519
aI3
asS'fa'
p4335
(lp4336
I1203
aI19
asS'fe'
p4337
(lp4338
I28
aI59
asS'ff'
p4339
(lp4340
I191
aI14
asS'fi'
p4341
(lp4342
I931
aI35
asS'fl'
p4343
(lp4344
I1009
aI9
asS'r.'
p4345
(lp4346
I2799
aI2
asS'fo'
p4347
(lp4348
I111
aI149
asS'a'
p4349
(lp4350
I18
aI2071
asS'egy'
p4351
(lp4352
I3502
aI1
asVcoat
p4353
(lp4354
I2971
aI1
asS'cs '
p4355
(lp4356
I2490
aI1
asS'ry '
p4357
(lp4358
I603
aI14
asS'sm"'
p4359
(lp4360
I3545
aI1
asS'egh'
p4361
(lp4362
I3138
aI1
asS'ego'
p4363
(lp4364
I2779
aI1
asS'ds '
p4365
(lp4366
I2611
aI4
asS'l v'
p4367
(lp4368
I3594
aI1
asValphabet
p4369
(lp4370
I3708
aI1
asS'ega'
p4371
(lp4372
I3187
aI2
asVdream
p4373
(lp4374
I1034
aI1
asS'oat'
p4375
(lp4376
I2973
aI2
asS'r a'
p4377
(lp4378
I509
aI37
asS'ito'
p4379
(lp4380
I1851
aI2
asVWhat
p4381
(lp4382
I80
aI108
asS'r b'
p4383
(lp4384
I855
aI8
asVmexican
p4385
(lp4386
I3292
aI1
asS'r d'
p4387
(lp4388
I2284
aI4
asS'r g'
p4389
(lp4390
I485
aI1
asS'iti'
p4391
(lp4392
I79
aI8
asS'r i'
p4393
(lp4394
I2656
aI10
asS'y '
p4395
(lp4396
I340
aI146
asS'r k'
p4397
(lp4398
I2115
aI3
asS'ite'
p4399
(lp4400
I1881
aI12
asS'r m'
p4401
(lp4402
I1226
aI2
asS'r l'
p4403
(lp4404
I1421
aI6
asS'r o'
p4405
(lp4406
I1495
aI9
asS'r n'
p4407
(lp4408
I403
aI6
asS'ffo'
p4409
(lp4410
I3456
aI1
asS'r s'
p4411
(lp4412
I1948
aI5
asS'r r'
p4413
(lp4414
I2241
aI6
asVthrough
p4415
(lp4416
I2705
aI4
asS'r t'
p4417
(lp4418
I146
aI50
asS'r w'
p4419
(lp4420
I2035
aI5
asS'ity'
p4421
(lp4422
I791
aI11
asS'itt'
p4423
(lp4424
I540
aI21
asVsuffer
p4425
(lp4426
I2038
aI1
asVits
p4427
(lp4428
I2063
aI2
asS'24'
p4429
(lp4430
I2804
aI1
asS'g g'
p4431
(lp4432
I2019
aI2
asS'but'
p4433
(lp4434
I2093
aI5
asS'r D'
p4435
(lp4436
I3240
aI1
asS'r G'
p4437
(lp4438
I2640
aI1
asVcall
p4439
(lp4440
I2529
aI1
asS'r I'
p4441
(lp4442
I2996
aI1
asS'r K'
p4443
(lp4444
I3060
aI1
asS' l '
p4445
(lp4446
I1729
aI2
asS'r M'
p4447
(lp4448
I2399
aI2
asVhounds
p4449
(lp4450
I1735
aI1
asS'nto'
p4451
(lp4452
I2883
aI4
asS'h C'
p4453
(lp4454
I2328
aI3
asS'2 '
p4455
(lp4456
I2741
aI7
asVsystems
p4457
(lp4458
I2969
aI1
asS'r W'
p4459
(lp4460
I1789
aI4
asS'r V'
p4461
(lp4462
I3302
aI1
asS' Ot'
p4463
(lp4464
I3040
aI2
asS'g c'
p4465
(lp4466
I1901
aI6
asVmight
p4467
(lp4468
I2781
aI6
asS'e n'
p4469
(lp4470
I1499
aI14
asS'e o'
p4471
(lp4472
I815
aI35
asS'e l'
p4473
(lp4474
I946
aI15
asS'e m'
p4475
(lp4476
I741
aI23
asS'ym'
p4477
(lp4478
I1346
aI1
asS'yl'
p4479
(lp4480
I845
aI12
asS'yo'
p4481
(lp4482
I629
aI67
asS'e i'
p4483
(lp4484
I133
aI41
asVfood
p4485
(lp4486
I491
aI62
asS'cen'
p4487
(lp4488
I794
aI6
asS'e d'
p4489
(lp4490
I1275
aI26
asS'cel'
p4491
(lp4492
I705
aI5
asS'ye'
p4493
(lp4494
I1064
aI4
asS'L'
p4495
(lp4496
I6
aI16
asS'it '
p4497
(lp4498
I1019
aI13
asS'e a'
p4499
(lp4500
I902
aI98
asS'r 1'
p4501
(lp4502
I226
aI49
asS'r 2'
p4503
(lp4504
I2129
aI7
asS'ces'
p4505
(lp4506
I1942
aI9
asS'cer'
p4507
(lp4508
I3005
aI3
asS'cep'
p4509
(lp4510
I730
aI9
asS'oki'
p4511
(lp4512
I506
aI45
asS'e w'
p4513
(lp4514
I848
aI66
asS'e t'
p4515
(lp4516
I201
aI125
asS'e u'
p4517
(lp4518
I784
aI15
asS'e r'
p4519
(lp4520
I1464
aI20
asS'e s'
p4521
(lp4522
I1306
aI45
asS'e p'
p4523
(lp4524
I1374
aI13
asS'e q'
p4525
(lp4526
I3167
aI2
asS'e N'
p4527
(lp4528
I2900
aI2
asS'e O'
p4529
(lp4530
I3039
aI2
asS'e L'
p4531
(lp4532
I1394
aI3
asS'e M'
p4533
(lp4534
I1877
aI8
asS'Rac'
p4535
(lp4536
I298
aI1
asS'e I'
p4537
(lp4538
I716
aI10
asS'e G'
p4539
(lp4540
I147
aI17
asS'e D'
p4541
(lp4542
I2432
aI1
asS'e E'
p4543
(lp4544
I1930
aI3
asS'e B'
p4545
(lp4546
I2174
aI5
asS'e C'
p4547
(lp4548
I725
aI9
asS'e A'
p4549
(lp4550
I2285
aI5
asS'ife'
p4551
(lp4552
I1987
aI2
asS'iff'
p4553
(lp4554
I231
aI8
asVstopped
p4555
(lp4556
I3010
aI1
asS"I'"
p4557
(lp4558
I1414
aI4
asS'e W'
p4559
(lp4560
I3107
aI1
asS'e U'
p4561
(lp4562
I1629
aI4
asS'e R'
p4563
(lp4564
I995
aI6
asS'ifi'
p4565
(lp4566
I2552
aI2
asS'e P'
p4567
(lp4568
I2145
aI8
asS'M'
p4569
(lp4570
I1858
aI24
asS'g W'
p4571
(lp4572
I1123
aI22
asS'Mus'
p4573
(lp4574
I2683
aI6
asS'Eng'
p4575
(lp4576
I1565
aI5
asVPersian
p4577
(lp4578
I2138
aI7
asS' sp'
p4579
(lp4580
I427
aI82
asVhard
p4581
(lp4582
I1404
aI1
asVreduce
p4583
(lp4584
I317
aI3
asS' sw'
p4585
(lp4586
I2354
aI2
asS' st'
p4587
(lp4588
I644
aI29
asS' su'
p4589
(lp4590
I1938
aI14
asS' sk'
p4591
(lp4592
I850
aI13
asS' sh'
p4593
(lp4594
I1238
aI29
asS'as '
p4595
(lp4596
I129
aI42
asS' so'
p4597
(lp4598
I1055
aI18
asS' sl'
p4599
(lp4600
I3163
aI1
asS' sm'
p4601
(lp4602
I3343
aI2
asS' sc'
p4603
(lp4604
I457
aI1
asS' sa'
p4605
(lp4606
I882
aI13
asS' se'
p4607
(lp4608
I1657
aI9
asS'e. '
p4609
(lp4610
I878
aI1
asS'fte'
p4611
(lp4612
I1215
aI10
asS'izz'
p4613
(lp4614
I1584
aI4
asS'pha'
p4615
(lp4616
I3716
aI1
asVYiddish
p4617
(lp4618
I1953
aI3
asS'ass'
p4619
(lp4620
I3025
aI2
asS'edd'
p4621
(lp4622
I2386
aI2
asS'asp'
p4623
(lp4624
I3384
aI1
asS'asu'
p4625
(lp4626
I205
aI1
asS'sbu'
p4627
(lp4628
I543
aI21
asS' Ma'
p4629
(lp4630
I2441
aI2
asS' Al'
p4631
(lp4632
I975
aI25
asS' Am'
p4633
(lp4634
I1247
aI8
asS'pub'
p4635
(lp4636
I1444
aI3
asVreason
p4637
(lp4638
I1852
aI1
asS' As'
p4639
(lp4640
I2636
aI8
asS'mmi'
p4641
(lp4642
I2567
aI1
asS'ase'
p4643
(lp4644
I70
aI21
asS'put'
p4645
(lp4646
I1111
aI19
asS'st '
p4647
(lp4648
I49
aI34
asS'asi'
p4649
(lp4650
I1115
aI13
asS'mma'
p4651
(lp4652
I719
aI7
asS'pur'
p4653
(lp4654
I2168
aI1
asVtemperature
p4655
(lp4656
I667
aI7
asS'Em'
p4657
(lp4658
I971
aI16
asS'El'
p4659
(lp4660
I2519
aI1
asS'En'
p4661
(lp4662
I1549
aI5
asS'Eg'
p4663
(lp4664
I1926
aI2
asVcomputers
p4665
(lp4666
I1907
aI5
asS'Ea'
p4667
(lp4668
I3494
aI1
asS'ft?'
p4669
(lp4670
I1778
aI1
asS'st,'
p4671
(lp4672
I3542
aI1
asVamerican
p4673
(lp4674
I490
aI7
asS'Ex'
p4675
(lp4676
I2065
aI2
asS'w'
p4677
(lp4678
I89
aI581
asS'Cen'
p4679
(lp4680
I3700
aI1
asS'Eu'
p4681
(lp4682
I2210
aI5
asS' ef'
p4683
(lp4684
I3455
aI1
asS'rro'
p4685
(lp4686
I2991
aI2
asS'Fra'
p4687
(lp4688
I1787
aI7
asS' Yi'
p4689
(lp4690
I1961
aI3
asVfeel
p4691
(lp4692
I2147
aI3
asS'u w'
p4693
(lp4694
I2315
aI6
asS'u t'
p4695
(lp4696
I2531
aI4
asS'u u'
p4697
(lp4698
I3749
aI1
asS'Imm'
p4699
(lp4700
I718
aI7
asS'u s'
p4701
(lp4702
I643
aI2
asS'u p'
p4703
(lp4704
I3692
aI1
asS'h f'
p4705
(lp4706
I1793
aI7
asS'u n'
p4707
(lp4708
I2358
aI1
asS'u l'
p4709
(lp4710
I3131
aI1
asVsmaller
p4711
(lp4712
I3340
aI1
asS'u k'
p4713
(lp4714
I3192
aI1
asS'u h'
p4715
(lp4716
I825
aI10
asS'u f'
p4717
(lp4718
I3614
aI1
asS'u g'
p4719
(lp4720
I3405
aI1
asS'u e'
p4721
(lp4722
I3560
aI1
asS'u b'
p4723
(lp4724
I3281
aI1
asS'u c'
p4725
(lp4726
I703
aI3
asVPark
p4727
(lp4728
I3695
aI1
asS' em'
p4729
(lp4730
I1166
aI31
asS'h i'
p4731
(lp4732
I1085
aI23
asV"
p4733
(lp4734
I516
aI15
asS'h o'
p4735
(lp4736
I1198
aI2
asS' ei'
p4737
(lp4738
I799
aI3
asS'h m'
p4739
(lp4740
I1760
aI4
asS'h c'
p4741
(lp4742
I1263
aI10
asS'h b'
p4743
(lp4744
I3634
aI1
asS'h a'
p4745
(lp4746
I2077
aI7
asS' eg'
p4747
(lp4748
I3501
aI1
asS' ea'
p4749
(lp4750
I770
aI31
asS'h e'
p4751
(lp4752
I1966
aI4
asS'h d'
p4753
(lp4754
I1015
aI4
asS'jec'
p4755
(lp4756
I3265
aI1
asVstation
p4757
(lp4758
I1220
aI9
asS' ex'
p4759
(lp4760
I1648
aI10
asS'h s'
p4761
(lp4762
I1270
aI6
asS'h r'
p4763
(lp4764
I556
aI5
asS' ev'
p4765
(lp4766
I2909
aI1
asS'kor'
p4767
(lp4768
I2117
aI7
asVstore
p4769
(lp4770
I2133
aI1
asS'h t'
p4771
(lp4772
I1027
aI12
asS'sl'
p4773
(lp4774
I2674
aI16
asS'ncr'
p4775
(lp4776
I2279
aI1
asVhotel
p4777
(lp4778
I927
aI27
asS'nct'
p4779
(lp4780
I1461
aI1
asS'odu'
p4781
(lp4782
I2166
aI5
asS'nch'
p4783
(lp4784
I554
aI16
asS'nci'
p4785
(lp4786
I614
aI3
asVKerensky
p4787
(lp4788
I3056
aI1
asS' eu'
p4789
(lp4790
I2722
aI2
asS'w C'
p4791
(lp4792
I3301
aI1
asS'nce'
p4793
(lp4794
I729
aI25
asVRoad
p4795
(lp4796
I2956
aI1
asS'ste'
p4797
(lp4798
I1821
aI6
asVkind
p4799
(lp4800
I2756
aI2
asS'b'
p4801
(lp4802
I325
aI235
asS'sta'
p4803
(lp4804
I559
aI65
asS'sto'
p4805
(lp4806
I645
aI13
asS'sti'
p4807
(lp4808
I2083
aI9
asS'stu'
p4809
(lp4810
I3548
aI2
asVstates
p4811
(lp4812
I2847
aI3
asVcost
p4813
(lp4814
I1003
aI5
asS' er'
p4815
(lp4816
I2363
aI1
asS'str'
p4817
(lp4818
I1148
aI16
asS'sts'
p4819
(lp4820
I2126
aI3
asVtreated
p4821
(lp4822
I314
aI1
asS'sty'
p4823
(lp4824
I1640
aI3
asVexecutioner
p4825
(lp4826
I2027
aI1
asVcleaner
p4827
(lp4828
I1837
aI1
asS'ka '
p4829
(lp4830
I3603
aI2
asVpicked
p4831
(lp4832
I2391
aI1
asVLennon's
p4833
(lp4834
I1124
aI1
asS'ghe'
p4835
(lp4836
I3069
aI2
asS'Is '
p4837
(lp4838
I2538
aI12
asS'Gos'
p4839
(lp4840
I149
aI6
asS'lid'
p4841
(lp4842
I3164
aI1
asS'lie'
p4843
(lp4844
I2663
aI4
asS'lif'
p4845
(lp4846
I1986
aI3
asS'k '
p4847
(lp4848
I1477
aI40
asS'lia'
p4849
(lp4850
I474
aI10
asS'ex '
p4851
(lp4852
I3488
aI1
asS'lic'
p4853
(lp4854
I1447
aI4
asS'lim'
p4855
(lp4856
I2686
aI6
asS'lin'
p4857
(lp4858
I2277
aI4
asS'efs'
p4859
(lp4860
I2862
aI1
asS'efu'
p4861
(lp4862
I1390
aI1
asVhairdresser
p4863
(lp4864
I2649
aI1
asS'lik'
p4865
(lp4866
I1423
aI14
asVArab
p4867
(lp4868
I1855
aI4
asS'liv'
p4869
(lp4870
I1717
aI5
asS'lip'
p4871
(lp4872
I2600
aI1
asVuseless
p4873
(lp4874
I891
aI1
asS'lis'
p4875
(lp4876
I1568
aI11
asVfinding
p4877
(lp4878
I1818
aI1
asS'cci'
p4879
(lp4880
I2412
aI1
asS'uer'
p4881
(lp4882
I2143
aI6
asS'efe'
p4883
(lp4884
I781
aI6
asVGermans
p4885
(lp4886
I2299
aI1
asS'iAn'
p4887
(lp4888
I912
aI11
asS's C'
p4889
(lp4890
I3698
aI1
asVreach
p4891
(lp4892
I1484
aI1
asS'kan'
p4893
(lp4894
I3020
aI1
asVmost
p4895
(lp4896
I2039
aI4
asVvirus
p4897
(lp4898
I3604
aI1
asS'Isl'
p4899
(lp4900
I3035
aI8
asS'kay'
p4901
(lp4902
I2499
aI1
asS'bac'
p4903
(lp4904
I2378
aI5
asVviolin
p4905
(lp4906
I2271
aI1
asS'exe'
p4907
(lp4908
I2030
aI2
asS'ke'
p4909
(lp4910
I1084
aI29
asS'exa'
p4911
(lp4912
I978
aI27
asVEgypt
p4913
(lp4914
I3706
aI1
asS'ki'
p4915
(lp4916
I497
aI62
asVcover
p4917
(lp4918
I1975
aI1
asS'kn'
p4919
(lp4920
I753
aI32
asS'kl'
p4921
(lp4922
I587
aI3
asS'ks'
p4923
(lp4924
I1440
aI7
asS'ext'
p4925
(lp4926
I3003
aI1
asS'exp'
p4927
(lp4928
I1967
aI6
asS'ky'
p4929
(lp4930
I844
aI13
asVmicrosoft
p4931
(lp4932
I1770
aI2
asS'rte'
p4933
(lp4934
I953
aI2
asS'Hai'
p4935
(lp4936
I77
aI1
asS'ugh'
p4937
(lp4938
I1266
aI13
asS'rta'
p4939
(lp4940
I1231
aI4
asS'sh.'
p4941
(lp4942
I3784
aI1
asS'rtl'
p4943
(lp4944
I3052
aI1
asVExplain
p4945
(lp4946
I2056
aI1
asS'rti'
p4947
(lp4948
I2550
aI1
asS'rth'
p4949
(lp4950
I3541
aI2
asS'rtu'
p4951
(lp4952
I1684
aI2
asS'rbo'
p4953
(lp4954
I2934
aI1
asS'rts'
p4955
(lp4956
I2761
aI1
asVPalestine
p4957
(lp4958
I2615
aI1
asS'ek '
p4959
(lp4960
I2225
aI6
asS'rty'
p4961
(lp4962
I3157
aI1
asVfind
p4963
(lp4964
I926
aI24
asVgiant
p4965
(lp4966
I3828
aI1
asS'evi'
p4967
(lp4968
I3214
aI2
asS'scr'
p4969
(lp4970
I3808
aI1
asS'ies'
p4971
(lp4972
I211
aI25
asS'xec'
p4973
(lp4974
I2031
aI2
asS'Orl'
p4975
(lp4976
I3670
aI1
asS'm n'
p4977
(lp4978
I2514
aI2
asS' Mu'
p4979
(lp4980
I2682
aI6
asS'Jo'
p4981
(lp4982
I121
aI14
asS'iel'
p4983
(lp4984
I271
aI9
asS'ien'
p4985
(lp4986
I616
aI21
asS'Je'
p4987
(lp4988
I2000
aI2
asS'iec'
p4989
(lp4990
I3742
aI1
asS' en'
p4991
(lp4992
I1788
aI13
asS'Ja'
p4993
(lp4994
I3238
aI2
asS'ymo'
p4995
(lp4996
I1356
aI1
asS'rd '
p4997
(lp4998
I1410
aI1
asS'hip'
p4999
(lp5000
I1336
aI2
asS"rt'"
p5001
(lp5002
I2262
aI1
asS'his'
p5003
(lp5004
I597
aI37
asVfounding
p5005
(lp5006
I3231
aI1
asS'rt '
p5007
(lp5008
I1212
aI26
asVking
p5009
(lp5010
I3498
aI1
asVswing
p5011
(lp5012
I2353
aI1
asS'hic'
p5013
(lp5014
I1261
aI17
asS'nly'
p5015
(lp5016
I3283
aI1
asS'hig'
p5017
(lp5018
I3068
aI1
asVduring
p5019
(lp5020
I161
aI32
asS'hil'
p5021
(lp5022
I1558
aI12
asS'hin'
p5023
(lp5024
I810
aI50
asS'crs'
p5025
(lp5026
I2119
aI1
asVAmerica
p5027
(lp5028
I1241
aI6
asVcommon
p5029
(lp5030
I3633
aI1
asS'cre'
p5031
(lp5032
I1079
aI7
asS'x'
p5033
(lp5034
I960
aI47
asS' ph'
p5035
(lp5036
I2786
aI1
asS'ph'
p5037
(lp5038
I2533
aI4
asS's, '
p5039
(lp5040
I2833
aI3
asS'cro'
p5041
(lp5042
I1692
aI14
asVrestaurants
p5043
(lp5044
I1588
aI8
asS' Be'
p5045
(lp5046
I3387
aI1
asS'sev'
p5047
(lp5048
I2869
aI1
asS'seu'
p5049
(lp5050
I1538
aI5
asS'ars'
p5051
(lp5052
I2579
aI2
asS'art'
p5053
(lp5054
I952
aI33
asS'ser'
p5055
(lp5056
I483
aI8
asS'seq'
p5057
(lp5058
I3145
aI1
asS' Bl'
p5059
(lp5060
I1187
aI1
asS' Bi'
p5061
(lp5062
I3249
aI2
asVFrance
p5063
(lp5064
I1779
aI7
asS' Bu'
p5065
(lp5066
I592
aI16
asS'ara'
p5067
(lp5068
I3090
aI2
asS'arb'
p5069
(lp5070
I3084
aI2
asS'sed'
p5071
(lp5072
I1121
aI14
asS'ard'
p5073
(lp5074
I1409
aI1
asVare
p5075
(lp5076
I887
aI65
asS'sea'
p5077
(lp5078
I68
aI18
asS'arg'
p5079
(lp5080
I991
aI2
asS'seo'
p5081
(lp5082
I3202
aI2
asS'ari'
p5083
(lp5084
I943
aI23
asS'sel'
p5085
(lp5086
I923
aI1
asS' By'
p5087
(lp5088
I2188
aI1
asS'arm'
p5089
(lp5090
I1767
aI6
asS'arn'
p5091
(lp5092
I1562
aI17
asVMorrison
p5093
(lp5094
I2390
aI1
asVvitamins
p5095
(lp5096
I3681
aI1
asS'wou'
p5097
(lp5098
I2357
aI5
asS'leg'
p5099
(lp5100
I3137
aI2
asVplease
p5101
(lp5102
I3691
aI1
asS'sfu'
p5103
(lp5104
I1944
aI5
asS'wor'
p5105
(lp5106
I220
aI29
asS'woo'
p5107
(lp5108
I1514
aI1
asVwon
p5109
(lp5110
I2586
aI3
asVvarious
p5111
(lp5112
I2510
aI1
asVeurope
p5113
(lp5114
I2704
aI2
asVlatin
p5115
(lp5116
I929
aI1
asS'Be'
p5117
(lp5118
I3383
aI1
asS'pt '
p5119
(lp5120
I3711
aI1
asS'roe'
p5121
(lp5122
I3212
aI1
asS'i p'
p5123
(lp5124
I779
aI5
asS'ar?'
p5125
(lp5126
I2383
aI1
asS'ar '
p5127
(lp5128
I225
aI76
asS'ike'
p5129
(lp5130
I1424
aI14
asS'se '
p5131
(lp5132
I814
aI47
asS'iki'
p5133
(lp5134
I910
aI11
asVhistolytica
p5135
(lp5136
I3516
aI1
asS'Ba'
p5137
(lp5138
I1864
aI1
asVleague
p5139
(lp5140
I3046
aI5
asS'c'
p5141
(lp5142
I15
aI542
asVrestaurant
p5143
(lp5144
I520
aI39
asS'ler'
p5145
(lp5146
I2921
aI6
asVdeclare
p5147
(lp5148
I3220
aI1
asS"'s "
p5149
(lp5150
I985
aI16
asVroman
p5151
(lp5152
I1719
aI5
asVbecame
p5153
(lp5154
I1316
aI1
asS' Pe'
p5155
(lp5156
I2146
aI9
asS' Ph'
p5157
(lp5158
I2597
aI1
asS'wo '
p5159
(lp5160
I3350
aI1
asVliked
p5161
(lp5162
I3236
aI1
asVstudy
p5163
(lp5164
I3547
aI2
asS'rag'
p5165
(lp5166
I2916
aI1
asVreasons
p5167
(lp5168
I2057
aI1
asVMr
p5169
(lp5170
I2389
aI8
asS'od '
p5171
(lp5172
I1353
aI24
asVagents
p5173
(lp5174
I2504
aI2
asS'ady'
p5175
(lp5176
I2658
aI1
asVWas
p5177
(lp5178
I245
aI16
asVWar
p5179
(lp5180
I287
aI79
asS'pr'
p5181
(lp5182
I352
aI104
asS'wes'
p5183
(lp5184
I2233
aI1
asS'pp'
p5185
(lp5186
I1193
aI27
asS'pt'
p5187
(lp5188
I698
aI15
asS'wer'
p5189
(lp5190
I198
aI46
asVmonthly
p5191
(lp5192
I3311
aI1
asVcreate
p5193
(lp5194
I3117
aI1
asS'duc'
p5195
(lp5196
I397
aI8
asS'swe'
p5197
(lp5198
I907
aI24
asS'add'
p5199
(lp5200
I3713
aI1
asVsuburbs
p5201
(lp5202
I3304
aI1
asS'i a'
p5203
(lp5204
I499
aI56
asS'xam'
p5205
(lp5206
I1649
aI3
asS'xan'
p5207
(lp5208
I979
aI25
asS'pe'
p5209
(lp5210
I117
aI44
asS'dur'
p5211
(lp5212
I213
aI32
asS'pi'
p5213
(lp5214
I106
aI94
asS'pn'
p5215
(lp5216
I2975
aI1
asS'po'
p5217
(lp5218
I454
aI25
asS'pl'
p5219
(lp5220
I897
aI33
asS'4'
p5221
(lp5222
I2793
aI1
asS'Ema'
p5223
(lp5224
I1520
aI1
asS'Br'
p5225
(lp5226
I2172
aI6
asS' ty'
p5227
(lp5228
I3476
aI1
asS' tw'
p5229
(lp5230
I3349
aI1
asVinfect
p5231
(lp5232
I2968
aI1
asVwhat's
p5233
(lp5234
I1916
aI2
asS'gat'
p5235
(lp5236
I3188
aI1
asS' tr'
p5237
(lp5238
I373
aI28
asS'N'
p5239
(lp5240
I1382
aI16
asS' to'
p5241
(lp5242
I391
aI212
asS'gam'
p5243
(lp5244
I3680
aI1
asS'gal'
p5245
(lp5246
I2021
aI6
asS'Emp'
p5247
(lp5248
I988
aI15
asS'gai'
p5249
(lp5250
I275
aI2
asS' th'
p5251
(lp5252
I131
aI335
asS' te'
p5253
(lp5254
I673
aI14
asS'gac'
p5255
(lp5256
I3719
aI1
asS' ta'
p5257
(lp5258
I1677
aI13
asS'965'
p5259
(lp5260
I2810
aI1
asVconception
p5261
(lp5262
I1999
aI2
asS'fus'
p5263
(lp5264
I1391
aI1
asS'ski'
p5265
(lp5266
I2712
aI1
asS'tip'
p5267
(lp5268
I3161
aI2
asVmedically
p5269
(lp5270
I315
aI1
asS'p '
p5271
(lp5272
I632
aI10
asVinvolved
p5273
(lp5274
I3654
aI2
asS'fun'
p5275
(lp5276
I1459
aI2
asS'ful'
p5277
(lp5278
I1945
aI5
asS'i m'
p5279
(lp5280
I1993
aI3
asS'eke'
p5281
(lp5282
I3581
aI2
asVCity
p5283
(lp5284
I3583
aI2
asS'riv'
p5285
(lp5286
I1412
aI2
asVfunded
p5287
(lp5288
I2469
aI1
asS'gel'
p5289
(lp5290
I1469
aI11
asS'ris'
p5291
(lp5292
I944
aI25
asVstations
p5293
(lp5294
I3672
aI1
asS'rin'
p5295
(lp5296
I215
aI36
asS'rio'
p5297
(lp5298
I2513
aI3
asS'rig'
p5299
(lp5300
I1981
aI1
asS'rid'
p5301
(lp5302
I3585
aI1
asS'rie'
p5303
(lp5304
I244
aI41
asS'rib'
p5305
(lp5306
I2091
aI6
asS'ric'
p5307
(lp5308
I513
aI19
asS'ria'
p5309
(lp5310
I1990
aI7
asVclerical
p5311
(lp5312
I3101
aI1
asS'ewo'
p5313
(lp5314
I1513
aI1
asVanymore
p5315
(lp5316
I1343
aI1
asS'gs '
p5317
(lp5318
I2627
aI1
asS'9'
p5319
(lp5320
I2740
aI5
asVSilk
p5321
(lp5322
I2955
aI1
asS'ac'
p5323
(lp5324
I290
aI60
asVused
p5325
(lp5326
I1118
aI7
asVturkey's
p5327
(lp5328
I2947
aI1
asS'tis'
p5329
(lp5330
I2178
aI6
asVmountain
p5331
(lp5332
I2891
aI3
asVgallery
p5333
(lp5334
I2920
aI3
asS'syn'
p5335
(lp5336
I3596
aI1
asS'sys'
p5337
(lp5338
I1893
aI2
asS'002'
p5339
(lp5340
I2821
aI1
asS'lig'
p5341
(lp5342
I1827
aI10
asVpurpose
p5343
(lp5344
I2167
aI1
asVmonroeville
p5345
(lp5346
I3208
aI1
asS'009'
p5347
(lp5348
I2855
aI1
asVvampires
p5349
(lp5350
I1700
aI1
asS'Col'
p5351
(lp5352
I3568
aI1
asS'ri '
p5353
(lp5354
I3867
aI1
asS'Con'
p5355
(lp5356
I727
aI8
asS'kno'
p5357
(lp5358
I763
aI32
asS' fr'
p5359
(lp5360
I422
aI55
asS' fu'
p5361
(lp5362
I1458
aI2
asS'els'
p5363
(lp5364
I3082
aI4
asS'ew '
p5365
(lp5366
I1029
aI16
asVcounty
p5367
(lp5368
I3136
aI1
asS'w 1'
p5369
(lp5370
I3664
aI1
asS' fa'
p5371
(lp5372
I1208
aI19
asS' fe'
p5373
(lp5374
I712
aI7
asVExamples
p5375
(lp5376
I3375
aI1
asS' fi'
p5377
(lp5378
I1140
aI16
asS' fl'
p5379
(lp5380
I1023
aI8
asS' fo'
p5381
(lp5382
I144
aI143
asS'T'
p5383
(lp5384
I2708
aI5
asS'o, '
p5385
(lp5386
I3631
aI1
asS'ldi'
p5387
(lp5388
I1598
aI4
asS'mol'
p5389
(lp5390
I3491
aI1
asVMuslims
p5391
(lp5392
I2856
aI1
asS'ldr'
p5393
(lp5394
I1560
aI11
asS'rne'
p5395
(lp5396
I2304
aI2
asS'amp'
p5397
(lp5398
I1650
aI5
asVtaiwan
p5399
(lp5400
I3769
aI1
asVcontinent
p5401
(lp5402
I2585
aI1
asS'cuu'
p5403
(lp5404
I1842
aI2
asS'cut'
p5405
(lp5406
I2033
aI2
asVLuxembourg
p5407
(lp5408
I3421
aI1
asS'rge'
p5409
(lp5410
I992
aI3
asS'aps'
p5411
(lp5412
I3355
aI1
asS'rgh'
p5413
(lp5414
I546
aI21
asVGermany
p5415
(lp5416
I3221
aI2
asS'cul'
p5417
(lp5418
I722
aI11
asVadministrative
p5419
(lp5420
I1645
aI2
asS'ee '
p5421
(lp5422
I1724
aI6
asS'gs'
p5423
(lp5424
I2619
aI1
asVNationalists
p5425
(lp5426
I3066
aI1
asS'bio'
p5427
(lp5428
I2486
aI1
asS'ld '
p5429
(lp5430
I223
aI72
asVDid
p5431
(lp5432
I1240
aI6
asVWhen
p5433
(lp5434
I1151
aI12
asS'efo'
p5435
(lp5436
I1972
aI4
asS'bia'
p5437
(lp5438
I2287
aI1
asS'Ma'
p5439
(lp5440
I2440
aI2
asS'Ot'
p5441
(lp5442
I3032
aI2
asVprecipitation
p5443
(lp5444
I2557
aI1
asS'yph'
p5445
(lp5446
I3478
aI1
asVmacy's
p5447
(lp5448
I3861
aI1
asS'Dis'
p5449
(lp5450
I2888
aI1
asVbanjo
p5451
(lp5452
I3685
aI1
asS'd'
p5453
(lp5454
I17
aI838
asS'r f'
p5455
(lp5456
I1234
aI21
asS'l P'
p5457
(lp5458
I3701
aI1
asVmulticultural
p5459
(lp5460
I3118
aI1
asS'eer'
p5461
(lp5462
I2528
aI1
asS'rg '
p5463
(lp5464
I2467
aI2
asS'eel'
p5465
(lp5466
I2151
aI3
asS'ule'
p5467
(lp5468
I3080
aI1
asS'een'
p5469
(lp5470
I2105
aI2
asS'eff'
p5471
(lp5472
I3257
aI2
asS'eek'
p5473
(lp5474
I2224
aI9
asS'eed'
p5475
(lp5476
I759
aI20
asS'eec'
p5477
(lp5478
I2216
aI2
asS'b '
p5479
(lp5480
I1860
aI4
asVmethods
p5481
(lp5482
I3796
aI1
asVfathers
p5483
(lp5484
I3232
aI1
asVsome
p5485
(lp5486
I2410
aI3
asVexamples
p5487
(lp5488
I1641
aI2
asS'iji'
p5489
(lp5490
I3329
aI1
asVEmail
p5491
(lp5492
I1517
aI1
asS'zz '
p5493
(lp5494
I2697
aI1
asVriel
p5495
(lp5496
I1847
aI3
asS'per'
p5497
(lp5498
I677
aI8
asS'pel'
p5499
(lp5500
I152
aI10
asVreligion
p5501
(lp5502
I2603
aI2
asS'pen'
p5503
(lp5504
I3778
aI2
asS'peo'
p5505
(lp5506
I2629
aI1
asS'ped'
p5507
(lp5508
I1305
aI4
asS'pee'
p5509
(lp5510
I3155
aI2
asS'pea'
p5511
(lp5512
I2937
aI2
asS'id '
p5513
(lp5514
I464
aI88
asS'pec'
p5515
(lp5516
I3385
aI2
asVbe
p5517
(lp5518
I313
aI45
asS'ba'
p5519
(lp5520
I2375
aI10
asS'rul'
p5521
(lp5522
I3079
aI1
asS'rum'
p5523
(lp5524
I1149
aI9
asS'oes'
p5525
(lp5526
I1017
aI22
asS'ruc'
p5527
(lp5528
I1528
aI1
asS'bo'
p5529
(lp5530
I823
aI97
asS'use'
p5531
(lp5532
I369
aI45
asS'uff'
p5533
(lp5534
I2042
aI1
asS'rue'
p5535
(lp5536
I876
aI2
asS'bu'
p5537
(lp5538
I525
aI59
asS'oen'
p5539
(lp5540
I2463
aI1
asS'br'
p5541
(lp5542
I689
aI7
asS'bs'
p5543
(lp5544
I3130
aI3
asS'rus'
p5545
(lp5546
I368
aI21
asVmajor
p5547
(lp5548
I2602
aI2
asVby
p5549
(lp5550
I1156
aI15
asS'zza'
p5551
(lp5552
I1585
aI4
asS'che'
p5553
(lp5554
I2927
aI2
asS'Rom'
p5555
(lp5556
I997
aI8
asS'saf'
p5557
(lp5558
I2770
aI6
asS'Roa'
p5559
(lp5560
I2966
aI1
asS'ids'
p5561
(lp5562
I2944
aI1
asVfoood
p5563
(lp5564
I3609
aI1
asS'yla'
p5565
(lp5566
I853
aI12
asVOttoman
p5567
(lp5568
I3029
aI2
asS'idd'
p5569
(lp5570
I1963
aI3
asS'ide'
p5571
(lp5572
I1273
aI22
asS'pe '
p5573
(lp5574
I2724
aI1
asS'ppl'
p5575
(lp5576
I2135
aI3
asS'nsi'
p5577
(lp5578
I3291
aI2
asS'wn '
p5579
(lp5580
I2269
aI1
asS'nsk'
p5581
(lp5582
I3064
aI1
asS'nsm'
p5583
(lp5584
I2726
aI1
asVinto
p5585
(lp5586
I2878
aI3
asVwithin
p5587
(lp5588
I2061
aI1
asS' up'
p5589
(lp5590
I2408
aI3
asS'nse'
p5591
(lp5592
I3144
aI1
asS'nsf'
p5593
(lp5594
I3464
aI1
asS' us'
p5595
(lp5596
I922
aI14
asS' um'
p5597
(lp5598
I3564
aI2
asS' un'
p5599
(lp5600
I785
aI11
asVparables
p5601
(lp5602
I3089
aI1
asS'usi'
p5603
(lp5604
I1145
aI26
asS'nsp'
p5605
(lp5606
I135
aI4
asVnext
p5607
(lp5608
I2997
aI1
asS'nst'
p5609
(lp5610
I277
aI11
asS'p f'
p5611
(lp5612
I2647
aI1
asS'Elt'
p5613
(lp5614
I2522
aI1
asS'nsw'
p5615
(lp5616
I906
aI22
asS'ut '
p5617
(lp5618
I1054
aI81
asS'xpl'
p5619
(lp5620
I2070
aI1
asS'. '
p5621
(lp5622
I868
aI8
asVOrleans
p5623
(lp5624
I3666
aI1
asVlong
p5625
(lp5626
I1925
aI1
asS'xpr'
p5627
(lp5628
I1968
aI5
asS'u '
p5629
(lp5630
I630
aI39
asVPersians
p5631
(lp5632
I3824
aI1
asS' Ch'
p5633
(lp5634
I2080
aI9
asS' Ci'
p5635
(lp5636
I3588
aI2
asS' Co'
p5637
(lp5638
I726
aI12
asS'ns '
p5639
(lp5640
I2072
aI20
asVcollapsed
p5641
(lp5642
I3347
aI1
asS' Ca'
p5643
(lp5644
I2480
aI2
asS'ka'
p5645
(lp5646
I2496
aI4
asS"ns'"
p5647
(lp5648
I2300
aI2
asS'wnt'
p5649
(lp5650
I3009
aI1
asS'n b'
p5651
(lp5652
I2303
aI6
asS'Ms '
p5653
(lp5654
I3286
aI1
asS'cia'
p5655
(lp5656
I2351
aI2
asS'uy'
p5657
(lp5658
I1101
aI25
asS'ux'
p5659
(lp5660
I3423
aI1
asS'cie'
p5661
(lp5662
I615
aI3
asS'ute'
p5663
(lp5664
I1112
aI25
asS'uu'
p5665
(lp5666
I1838
aI2
asS'ut'
p5667
(lp5668
I1039
aI112
asS'uti'
p5669
(lp5670
I2034
aI2
asS'up'
p5671
(lp5672
I2173
aI11
asS'us'
p5673
(lp5674
I34
aI111
asS'ur'
p5675
(lp5676
I179
aI149
asS'cis'
p5677
(lp5678
I300
aI1
asS'ul'
p5679
(lp5680
I693
aI38
asS'un'
p5681
(lp5682
I195
aI72
asS'ui'
p5683
(lp5684
I254
aI20
asS'civ'
p5685
(lp5686
I1653
aI2
asS'uk'
p5687
(lp5688
I3398
aI1
asVplanes
p5689
(lp5690
I1119
aI1
asS'ue'
p5691
(lp5692
I866
aI23
asS'ud'
p5693
(lp5694
I579
aI19
asS'ug'
p5695
(lp5696
I1257
aI13
asS'z'
p5697
(lp5698
I1578
aI21
asS'ua'
p5699
(lp5700
I174
aI5
asVcalled
p5701
(lp5702
I2307
aI6
asS'uc'
p5703
(lp5704
I343
aI48
asS'ub'
p5705
(lp5706
I1437
aI6
asS'lyt'
p5707
(lp5708
I3526
aI1
asS'Av'
p5709
(lp5710
I2914
aI1
asS'tib'
p5711
(lp5712
I2484
aI1
asS'ko'
p5713
(lp5714
I2114
aI7
asVinfluence
p5715
(lp5716
I2671
aI1
asVTo
p5717
(lp5718
I3571
aI2
asS'Th'
p5719
(lp5720
I2709
aI3
asVNew
p5721
(lp5722
I1698
aI18
asS' e'
p5723
(lp5724
I755
aI94
asS'Ita'
p5725
(lp5726
I2214
aI1
asVnationalism
p5727
(lp5728
I1854
aI2
asS'Ta'
p5729
(lp5730
I3459
aI1
asVSample
p5731
(lp5732
I3197
aI1
asVrainy
p5733
(lp5734
I3847
aI1
asS'Mar'
p5735
(lp5736
I3446
aI1
asS' gr'
p5737
(lp5738
I1163
aI20
asVwater
p5739
(lp5740
I3441
aI1
asS'nal'
p5741
(lp5742
I1869
aI10
asS'gry'
p5743
(lp5744
I1070
aI5
asS'nar'
p5745
(lp5746
I2624
aI3
asS'nas'
p5747
(lp5748
I1639
aI3
asS'Mac'
p5749
(lp5750
I2442
aI1
asS'gre'
p5751
(lp5752
I1164
aI18
asS'nat'
p5753
(lp5754
I1534
aI11
asS' ga'
p5755
(lp5756
I2020
aI5
asS' go'
p5757
(lp5758
I486
aI43
asS' gh'
p5759
(lp5760
I1593
aI2
asS' gi'
p5761
(lp5762
I2545
aI4
asS'lph'
p5763
(lp5764
I3715
aI1
asVproblems
p5765
(lp5766
I3644
aI1
asVrobots
p5767
(lp5768
I819
aI2
asVprepared
p5769
(lp5770
I3380
aI1
asVmeaning
p5771
(lp5772
I1730
aI1
asS'ac '
p5773
(lp5774
I1671
aI4
asS'ly '
p5775
(lp5776
I389
aI11
asS'Bed'
p5777
(lp5778
I3388
aI1
asS'je'
p5779
(lp5780
I3175
aI2
asVsides
p5781
(lp5782
I1417
aI2
asS'cts'
p5783
(lp5784
I3266
aI1
asS'Ac'
p5785
(lp5786
I1690
aI3
asVland
p5787
(lp5788
I3566
aI1
asS'e'
p5789
(lp5790
I14
aI2423
asS'is!'
p5791
(lp5792
I1576
aI1
asS'we'
p5793
(lp5794
I168
aI98
asS'age'
p5795
(lp5796
I1686
aI6
asS'Am'
p5797
(lp5798
I1245
aI8
asS'Al'
p5799
(lp5800
I964
aI25
asS'aga'
p5801
(lp5802
I274
aI4
asS'An'
p5803
(lp5804
I896
aI14
asVlegacies
p5805
(lp5806
I3709
aI1
asS'As'
p5807
(lp5808
I2621
aI8
asS'Ar'
p5809
(lp5810
I1859
aI7
asVScott
p5811
(lp5812
I3757
aI1
asVAsian
p5813
(lp5814
I3662
aI1
asVteachings
p5815
(lp5816
I2613
aI1
asVfar
p5817
(lp5818
I2280
aI5
asS'agu'
p5819
(lp5820
I1397
aI8
asV2009
p5821
(lp5822
I2850
aI1
asS' b'
p5823
(lp5824
I333
aI92
asS' c'
p5825
(lp5826
I171
aI220
asS'gu'
p5827
(lp5828
I1384
aI9
asS' a'
p5829
(lp5830
I257
aI524
asS' f'
p5831
(lp5832
I110
aI250
asS' g'
p5833
(lp5834
I455
aI83
asS' d'
p5835
(lp5836
I36
aI222
asS'ede'
p5837
(lp5838
I281
aI2
asS' j'
p5839
(lp5840
I445
aI15
asS' k'
p5841
(lp5842
I752
aI44
asS' h'
p5843
(lp5844
I638
aI100
asS' i'
p5845
(lp5846
I26
aI325
asS' n'
p5847
(lp5848
I346
aI66
asS' o'
p5849
(lp5850
I24
aI157
asS' l'
p5851
(lp5852
I494
aI122
asS' m'
p5853
(lp5854
I335
aI227
asS' r'
p5855
(lp5856
I342
aI92
asS' s'
p5857
(lp5858
I359
aI227
asS' p'
p5859
(lp5860
I351
aI100
asS' q'
p5861
(lp5862
I584
aI7
asS' v'
p5863
(lp5864
I330
aI32
asS' w'
p5865
(lp5866
I98
aI303
asS' t'
p5867
(lp5868
I100
aI614
asS'edu'
p5869
(lp5870
I396
aI3
asVgo
p5871
(lp5872
I437
aI53
asS' y'
p5873
(lp5874
I628
aI68
asVcontributions
p5875
(lp5876
I3505
aI1
asS'gi'
p5877
(lp5878
I1612
aI8
asS'gh'
p5879
(lp5880
I527
aI66
asS' B'
p5881
(lp5882
I577
aI28
asS' C'
p5883
(lp5884
I695
aI26
asS' A'
p5885
(lp5886
I963
aI50
asS' F'
p5887
(lp5888
I1782
aI7
asS' G'
p5889
(lp5890
I114
aI26
asS' D'
p5891
(lp5892
I2430
aI4
asS' E'
p5893
(lp5894
I970
aI30
asS' J'
p5895
(lp5896
I120
aI18
asS' K'
p5897
(lp5898
I3058
aI1
asS' H'
p5899
(lp5900
I43
aI3
asS' I'
p5901
(lp5902
I588
aI26
asS' N'
p5903
(lp5904
I1385
aI14
asS' O'
p5905
(lp5906
I3031
aI3
asS' L'
p5907
(lp5908
I252
aI14
asS' M'
p5909
(lp5910
I1861
aI23
asS' R'
p5911
(lp5912
I255
aI17
asS' S'
p5913
(lp5914
I2393
aI7
asS' P'
p5915
(lp5916
I2139
aI12
asS' V'
p5917
(lp5918
I3299
aI1
asS' W'
p5919
(lp5920
I296
aI100
asS' T'
p5921
(lp5922
I3458
aI1
asS' U'
p5923
(lp5924
I1621
aI4
asS' Y'
p5925
(lp5926
I1704
aI12
asVsent
p5927
(lp5928
I3731
aI2
asS'y W'
p5929
(lp5930
I2085
aI1
asS'Exp'
p5931
(lp5932
I2069
aI1
asS' Ru'
p5933
(lp5934
I1741
aI2
asS'ed '
p5935
(lp5936
I379
aI85
asVouterwear
p5937
(lp5938
I1830
aI1
asS'r v'
p5939
(lp5940
I2163
aI7
asS' 2'
p5941
(lp5942
I1259
aI24
asS'P'
p5943
(lp5944
I1320
aI13
asS' 1'
p5945
(lp5946
I188
aI95
asS' Wh'
p5947
(lp5948
I2086
aI1
asS'g '
p5949
(lp5950
I182
aI140
asS'g-'
p5951
(lp5952
I3675
aI1
asS' 9'
p5953
(lp5954
I2800
aI2
asS'ed?'
p5955
(lp5956
I1080
aI2
asVNationalist
p5957
(lp5958
I2895
aI1
asS'tri'
p5959
(lp5960
I243
aI25
asS'hi '
p5961
(lp5962
I1992
aI1
asVmorewood
p5963
(lp5964
I1502
aI1
asS'tro'
p5965
(lp5966
I2047
aI13
asS'-in'
p5967
(lp5968
I3483
aI1
asS'tra'
p5969
(lp5970
I1222
aI34
asS'us '
p5971
(lp5972
I63
aI27
asS'tre'
p5973
(lp5974
I374
aI2
asS'eve'
p5975
(lp5976
I416
aI9
asS'lk '
p5977
(lp5978
I1680
aI7
asS'try'
p5979
(lp5980
I1387
aI5
asVGerman
p5981
(lp5982
I1543
aI1
asS'esi'
p5983
(lp5984
I1375
aI4
asVAshoka
p5985
(lp5986
I3600
aI2
asS'Spa'
p5987
(lp5988
I3269
aI1
asS'tru'
p5989
(lp5990
I875
aI12
asS'le '
p5991
(lp5992
I2136
aI8
asS'too'
p5993
(lp5994
I3750
aI1
asS'uen'
p5995
(lp5996
I2681
aI2
asS'zi'
p5997
(lp5998
I2829
aI1
asS'rri'
p5999
(lp6000
I2404
aI3
asS'n T'
p6001
(lp6002
I3460
aI1
asS'Blu'
p6003
(lp6004
I1188
aI1
asS'ods'
p6005
(lp6006
I3800
aI1
asS'za'
p6007
(lp6008
I1581
aI15
asS'rra'
p6009
(lp6010
I1883
aI2
asS'n. '
p6011
(lp6012
I2478
aI1
asVpres
p6013
(lp6014
I3853
aI1
asS'w Y'
p6015
(lp6016
I1709
aI8
asS'zz'
p6017
(lp6018
I1580
aI5
asS'oda'
p6019
(lp6020
I1920
aI3
asS'ode'
p6021
(lp6022
I1815
aI3
asS'ues'
p6023
(lp6024
I1190
aI4
asS'il '
p6025
(lp6026
I1522
aI7
asS'w m'
p6027
(lp6028
I739
aI34
asS'w o'
p6029
(lp6030
I2368
aI2
asS'w h'
p6031
(lp6032
I1292
aI1
asS'w i'
p6033
(lp6034
I1995
aI2
asS'w d'
p6035
(lp6036
I1784
aI42
asS'w f'
p6037
(lp6038
I2283
aI2
asS'fat'
p6039
(lp6040
I3097
aI2
asS'w a'
p6041
(lp6042
I1340
aI18
asS'w b'
p6043
(lp6044
I1603
aI3
asS'w c'
p6045
(lp6046
I362
aI7
asVskylar
p6047
(lp6048
I840
aI12
asVindian
p6049
(lp6050
I3308
aI3
asS'ct '
p6051
(lp6052
I2746
aI9
asS'w y'
p6053
(lp6054
I1030
aI5
asS'y. '
p6055
(lp6056
I3619
aI1
asS'w t'
p6057
(lp6058
I1728
aI9
asS'w w'
p6059
(lp6060
I765
aI11
asS'lea'
p6061
(lp6062
I1332
aI27
asS'leb'
p6063
(lp6064
I707
aI4
asS'ue.'
p6065
(lp6066
I877
aI1
asS'led'
p6067
(lp6068
I2309
aI7
asS'oza'
p6069
(lp6070
I2260
aI9
asS'z '
p6071
(lp6072
I2694
aI1
asS'ue '
p6073
(lp6074
I1399
aI8
asVGreek
p6075
(lp6076
I2918
aI3
asS'itl'
p6077
(lp6078
I2255
aI1
asS'les'
p6079
(lp6080
I924
aI23
asS'let'
p6081
(lp6082
I917
aI8
asS'leu'
p6083
(lp6084
I3399
aI1
asS'lev'
p6085
(lp6086
I3314
aI1
asS'lex'
p6087
(lp6088
I977
aI27
asS'ley'
p6089
(lp6090
I3252
aI2
asS'od"'
p6091
(lp6092
I3452
aI2
asVConfederation
p6093
(lp6094
I3096
aI1
asVCommonwealth
p6095
(lp6096
I3108
aI1
asS'eni'
p6097
(lp6098
I3737
aI1
asVgreat
p6099
(lp6100
I1308
aI12
asS'ctr'
p6101
(lp6102
I2436
aI2
asS'rdr'
p6103
(lp6104
I2654
aI1
asVNationalism
p6105
(lp6106
I3554
aI1
asVlarger
p6107
(lp6108
I957
aI1
asVChildren
p6109
(lp6110
I2324
aI1
asS'cte'
p6111
(lp6112
I1472
aI7
asS'y 1'
p6113
(lp6114
I3433
aI1
asVcousins
p6115
(lp6116
I3077
aI1
asS'cto'
p6117
(lp6118
I2089
aI3
asS'cti'
p6119
(lp6120
I59
aI25
asS'n P'
p6121
(lp6122
I2632
aI1
asS' Do'
p6123
(lp6124
I2433
aI1
asS'Yid'
p6125
(lp6126
I1962
aI3
asVMuslim
p6127
(lp6128
I2672
aI5
asVapple
p6129
(lp6130
I2132
aI3
asS' Di'
p6131
(lp6132
I2776
aI2
asVbeijing
p6133
(lp6134
I3325
aI1
asVegypt
p6135
(lp6136
I3499
aI1
asVwin
p6137
(lp6138
I1242
aI5
asS'app'
p6139
(lp6140
I2134
aI5
asS'wil'
p6141
(lp6142
I3580
aI2
asS' Da'
p6143
(lp6144
I3241
aI1
asS'wit'
p6145
(lp6146
I1743
aI6
asS"us'"
p6147
(lp6148
I2008
aI2
asVcomposer
p6149
(lp6150
I436
aI4
asS'apa'
p6151
(lp6152
I1211
aI7
asS'cha'
p6153
(lp6154
I2575
aI4
asS'fed'
p6155
(lp6156
I280
aI2
asS'fee'
p6157
(lp6158
I2150
aI3
asVfrom
p6159
(lp6160
I322
aI22
asS'fec'
p6161
(lp6162
I57
aI25
asVusa
p6163
(lp6164
I1373
aI4
asS'fea'
p6165
(lp6166
I713
aI5
asS'chi'
p6167
(lp6168
I809
aI46
asS'fel'
p6169
(lp6170
I801
aI3
asS'usl'
p6171
(lp6172
I2684
aI6
asS'1 s'
p6173
(lp6174
I3158
aI1
asS'chn'
p6175
(lp6176
I1295
aI1
asS'cho'
p6177
(lp6178
I459
aI2
asVThe
p6179
(lp6180
I2700
aI6
asS'fer'
p6181
(lp6182
I233
aI12
asS'zin'
p6183
(lp6184
I2838
aI1
asS'os"'
p6185
(lp6186
I2844
aI1
asS'acc'
p6187
(lp6188
I2411
aI1
asS'fai'
p6189
(lp6190
I3106
aI3
asS'h. '
p6191
(lp6192
I3785
aI1
asVstarted
p6193
(lp6194
I3765
aI1
asVfactor
p6195
(lp6196
I3026
aI2
asS'Sco'
p6197
(lp6198
I3760
aI1
asVtrain
p6199
(lp6200
I1219
aI10
asS'r A'
p6201
(lp6202
I3663
aI1
asS'ch '
p6203
(lp6204
I555
aI64
asVanimals
p6205
(lp6206
I624
aI2
asS'ace'
p6207
(lp6208
I1823
aI16
asS'fe '
p6209
(lp6210
I2772
aI7
asS'f'
p6211
(lp6212
I12
aI454
asVthis
p6213
(lp6214
I3578
aI2
asVride
p6215
(lp6216
I3582
aI1
asVwhen
p6217
(lp6218
I1829
aI5
asVPeriod
p6219
(lp6220
I2880
aI1
asS'ied'
p6221
(lp6222
I3621
aI3
asS'ack'
p6223
(lp6224
I1170
aI4
asS'ieg'
p6225
(lp6226
I2778
aI1
asS' Ro'
p6227
(lp6228
I996
aI9
asS'ief'
p6229
(lp6230
I2861
aI1
asS' Ri'
p6231
(lp6232
I269
aI6
asS'aci'
p6233
(lp6234
I299
aI2
asS'tat'
p6235
(lp6236
I1225
aI27
asS'tau'
p6237
(lp6238
I560
aI47
asS'ach'
p6239
(lp6240
I1489
aI4
asS'z m'
p6241
(lp6242
I2698
aI1
asS'tar'
p6243
(lp6244
I2525
aI6
asS'tas'
p6245
(lp6246
I3816
aI1
asS'Mr.'
p6247
(lp6248
I3016
aI1
asVsomething
p6249
(lp6250
I1806
aI2
asS'tac'
p6251
(lp6252
I1169
aI2
asS'tal'
p6253
(lp6254
I1678
aI11
asS'tam'
p6255
(lp6256
I3518
aI2
asS'tan'
p6257
(lp6258
I2053
aI4
asS'Mr '
p6259
(lp6260
I2401
aI3
asS'tai'
p6261
(lp6262
I2893
aI5
asS'tak'
p6263
(lp6264
I2127
aI3
asS' va'
p6265
(lp6266
I1714
aI5
asVunited
p6267
(lp6268
I2846
aI3
asS' ve'
p6269
(lp6270
I600
aI5
asS'Yo'
p6271
(lp6272
I1705
aI8
asS'sit'
p6273
(lp6274
I790
aI2
asS' vi'
p6275
(lp6276
I365
aI22
asS'afe'
p6277
(lp6278
I2771
aI6
asS'aff'
p6279
(lp6280
I1471
aI3
asS'sic'
p6281
(lp6282
I1146
aI26
asS'r B'
p6283
(lp6284
I3248
aI2
asS'sia'
p6285
(lp6286
I1116
aI28
asS'sid'
p6287
(lp6288
I1272
aI14
asS'aft'
p6289
(lp6290
I1214
aI10
asVAmericans
p6291
(lp6292
I3407
aI2
asS'sio'
p6293
(lp6294
I1970
aI9
asS'sin'
p6295
(lp6296
I1887
aI3
asS'afr'
p6297
(lp6298
I2721
aI1
asVstock
p6299
(lp6300
I3820
aI1
asS'Yi'
p6301
(lp6302
I1957
aI3
asVadministrator
p6303
(lp6304
I1889
aI2
asVCaucassian
p6305
(lp6306
I3013
aI1
asVwatch
p6307
(lp6308
I3832
aI1
asS'act'
p6309
(lp6310
I2088
aI10
asVleukemia
p6311
(lp6312
I3397
aI1
asVBritish
p6313
(lp6314
I2170
aI5
asVRoman
p6315
(lp6316
I959
aI6
asVGospel
p6317
(lp6318
I85
aI6
asVjoplin
p6319
(lp6320
I3758
aI1
asVwinter
p6321
(lp6322
I3417
aI1
asS'ndu'
p6323
(lp6324
I2592
aI2
asS'af '
p6325
(lp6326
I2332
aI1
asVrobot
p6327
(lp6328
I1805
aI9
asS'Ya'
p6329
(lp6330
I2099
aI1
asVGreece
p6331
(lp6332
I2196
aI2
asVSakane
p6333
(lp6334
I3012
aI1
asS'enh'
p6335
(lp6336
I3182
aI1
asVwedding
p6337
(lp6338
I2384
aI2
asS'ens'
p6339
(lp6340
I3063
aI2
asVfont
p6341
(lp6342
I3411
aI1
asVs6
p6343
(lp6344
I2013
aI3
asS'own'
p6345
(lp6346
I2268
aI3
asVwon't
p6347
(lp6348
I3575
aI1
asS'thl'
p6349
(lp6350
I3317
aI1
asS'ny '
p6351
(lp6352
I2222
aI11
asVgalaxy
p6353
(lp6354
I2012
aI2
asS'eum'
p6355
(lp6356
I1539
aI5
asVwrite
p6357
(lp6358
I2310
aI7
asS'ld'
p6359
(lp6360
I185
aI95
asS'le'
p6361
(lp6362
I687
aI120
asS'wis'
p6363
(lp6364
I3320
aI3
asS'la'
p6365
(lp6366
I694
aI65
asS'lo'
p6367
(lp6368
I495
aI74
asS'll'
p6369
(lp6370
I338
aI124
asS'lm'
p6371
(lp6372
I3531
aI1
asS'tsb'
p6373
(lp6374
I542
aI21
asS'lk'
p6375
(lp6376
I1676
aI9
asS'li'
p6377
(lp6378
I449
aI73
asS'lv'
p6379
(lp6380
I3656
aI2
asS'lt'
p6381
(lp6382
I176
aI13
asS'lu'
p6383
(lp6384
I1183
aI3
asS'ls'
p6385
(lp6386
I636
aI11
asS'lp'
p6387
(lp6388
I1291
aI3
asS'Na'
p6389
(lp6390
I1386
aI7
asS'eut'
p6391
(lp6392
I1282
aI2
asS'ly'
p6393
(lp6394
I339
aI14
asS'dan'
p6395
(lp6396
I2452
aI1
asS'nym'
p6397
(lp6398
I1355
aI1
asS'Cau'
p6399
(lp6400
I3022
aI1
asS'dat'
p6401
(lp6402
I3783
aI1
asS'024'
p6403
(lp6404
I2822
aI1
asVCan
p6405
(lp6406
I2472
aI8
asS'ita'
p6407
(lp6408
I2321
aI13
asS'day'
p6409
(lp6410
I1921
aI3
asS'Sak'
p6411
(lp6412
I3018
aI1
asS'nfe'
p6413
(lp6414
I56
aI23
asS'nya'
p6415
(lp6416
I2424
aI1
asVSan
p6417
(lp6418
I2766
aI2
asS'l '
p6419
(lp6420
I119
aI161
asS'nfo'
p6421
(lp6422
I1614
aI1
asVuniversity
p6423
(lp6424
I772
aI1
asS'nfl'
p6425
(lp6426
I2679
aI1
asVfeast
p6427
(lp6428
I683
aI4
asS' hu'
p6429
(lp6430
I663
aI12
asS'0 c'
p6431
(lp6432
I3207
aI2
asS'k C'
p6433
(lp6434
I3587
aI2
asS' hi'
p6435
(lp6436
I1216
aI11
asS' ho'
p6437
(lp6438
I937
aI34
asS'sim'
p6439
(lp6440
I3859
aI1
asS' ha'
p6441
(lp6442
I826
aI27
asS' he'
p6443
(lp6444
I839
aI15
asS'oui'
p6445
(lp6446
I265
aI10
asS'oun'
p6447
(lp6448
I240
aI40
asS'hly'
p6449
(lp6450
I3318
aI1
asS'oul'
p6451
(lp6452
I1798
aI15
asS'emi'
p6453
(lp6454
I2667
aI2
asS'oug'
p6455
(lp6456
I1265
aI13
asVbooks
p6457
(lp6458
I1570
aI3
asVWhich
p6459
(lp6460
I1252
aI9
asS'ous'
p6461
(lp6462
I62
aI25
asS'our'
p6463
(lp6464
I1364
aI24
asS'out'
p6465
(lp6466
I1053
aI86
asVempires
p6467
(lp6468
I3346
aI1
asS"'"
p6469
(lp6470
I961
aI40
asS'exi'
p6471
(lp6472
I3296
aI2
asS'rer'
p6473
(lp6474
I2144
aI1
asS'res'
p6475
(lp6476
I557
aI66
asS'rep'
p6477
(lp6478
I3391
aI1
asS'rev'
p6479
(lp6480
I415
aI5
asS'rew'
p6481
(lp6482
I1512
aI1
asS't j'
p6483
(lp6484
I3087
aI3
asS'rei'
p6485
(lp6486
I2158
aI1
asS'ren'
p6487
(lp6488
I234
aI31
asS'rel'
p6489
(lp6490
I2608
aI2
asS'pan'
p6491
(lp6492
I2156
aI5
asS'rec'
p6493
(lp6494
I2338
aI11
asS'rea'
p6495
(lp6496
I375
aI119
asS'ref'
p6497
(lp6498
I780
aI6
asS'red'
p6499
(lp6500
I395
aI13
asS'ree'
p6501
(lp6502
I1723
aI14
asS'ece'
p6503
(lp6504
I2217
aI4
asS'Moz'
p6505
(lp6506
I2259
aI9
asS'eca'
p6507
(lp6508
I1327
aI2
asS'eco'
p6509
(lp6510
I2339
aI8
asS'ou '
p6511
(lp6512
I642
aI39
asS'eci'
p6513
(lp6514
I1479
aI6
asS'ech'
p6515
(lp6516
I1294
aI1
asS'qua'
p6517
(lp6518
I950
aI1
asValex
p6519
(lp6520
I3485
aI1
asVcompletely
p6521
(lp6522
I890
aI2
asS'ect'
p6523
(lp6524
I58
aI29
asS'que'
p6525
(lp6526
I2142
aI10
asVyork
p6527
(lp6528
I1006
aI5
asS'h F'
p6529
(lp6530
I3843
aI1
asS'oxe'
p6531
(lp6532
I1747
aI2
asS'qui'
p6533
(lp6534
I606
aI5
asS't r'
p6535
(lp6536
I1589
aI3
asVgospel
p6537
(lp6538
I2868
aI4
asS'ltr'
p6539
(lp6540
I3570
aI1
asVshadyside
p6541
(lp6542
I2650
aI1
asVallies
p6543
(lp6544
I2661
aI1
asS'g'
p6545
(lp6546
I167
aI344
asVcould
p6547
(lp6548
I2426
aI3
asVJesus
p6549
(lp6550
I1998
aI2
asS'vac'
p6551
(lp6552
I1841
aI3
asS're '
p6553
(lp6554
I200
aI160
asS'lth'
p6555
(lp6556
I3115
aI1
asS'lto'
p6557
(lp6558
I2523
aI1
asS'n C'
p6559
(lp6560
I2902
aI3
asVRiel
p6561
(lp6562
I247
aI6
asS'rs '
p6563
(lp6564
I410
aI21
asS'arr'
p6565
(lp6566
I3395
aI1
asS'an?'
p6567
(lp6568
I3773
aI1
asS'hey'
p6569
(lp6570
I2230
aI2
asS'cy '
p6571
(lp6572
I2574
aI2
asS"cy'"
p6573
(lp6574
I3864
aI1
asS'ses'
p6575
(lp6576
I71
aI28
asS'og '
p6577
(lp6578
I3576
aI1
asVancient
p6579
(lp6580
I571
aI2
asS'65 '
p6581
(lp6582
I2811
aI1
asVstart
p6583
(lp6584
I2517
aI3
asS'be '
p6585
(lp6586
I372
aI11
asVsystem
p6587
(lp6588
I1888
aI1
asVadopted
p6589
(lp6590
I2197
aI1
asVfahrenheit
p6591
(lp6592
I3178
aI1
asVtheir
p6593
(lp6594
I318
aI5
asS' Si'
p6595
(lp6596
I2962
aI1
asVintelligence
p6597
(lp6598
I2549
aI1
asS' Sc'
p6599
(lp6600
I2460
aI2
asS' Sa'
p6601
(lp6602
I2774
aI2
asS'low'
p6603
(lp6604
I2583
aI1
asS'm v'
p6605
(lp6606
I1066
aI2
asS'm w'
p6607
(lp6608
I2730
aI1
asS'm t'
p6609
(lp6610
I1487
aI7
asS'rso'
p6611
(lp6612
I2120
aI2
asS'ogy'
p6613
(lp6614
I1300
aI1
asS'm s'
p6615
(lp6616
I426
aI19
asS'm p'
p6617
(lp6618
I1025
aI7
asS'rse'
p6619
(lp6620
I3100
aI3
asVreversed
p6621
(lp6622
I3606
aI1
asS'udy'
p6623
(lp6624
I3550
aI2
asS'rsc'
p6625
(lp6626
I2926
aI2
asS'm f'
p6627
(lp6628
I421
aI4
asS'm g'
p6629
(lp6630
I1103
aI11
asS'ogo'
p6631
(lp6632
I3449
aI1
asS'R'
p6633
(lp6634
I250
aI18
asS'm b'
p6635
(lp6636
I656
aI1
asS'm c'
p6637
(lp6638
I1844
aI2
asS'udd'
p6639
(lp6640
I594
aI17
asS'm a'
p6641
(lp6642
I303
aI4
asS'rst'
p6643
(lp6644
I1143
aI6
asS'm o'
p6645
(lp6646
I1812
aI3
asS'm l'
p6647
(lp6648
I502
aI39
asS'm j'
p6649
(lp6650
I2872
aI1
asS'm k'
p6651
(lp6652
I2757
aI1
asS'm i'
p6653
(lp6654
I1541
aI9
asVipad
p6655
(lp6656
I1902
aI2
asS'bei'
p6657
(lp6658
I657
aI3
asS'm S'
p6659
(lp6660
I2773
aI1
asS'bel'
p6661
(lp6662
I2860
aI1
asVculture
p6663
(lp6664
I3705
aI2
asS'bec'
p6665
(lp6666
I1326
aI2
asS'bef'
p6667
(lp6668
I1971
aI4
asVinfectious
p6669
(lp6670
I2
aI19
asVfounder
p6671
(lp6672
I2952
aI1
asVdecided
p6673
(lp6674
I1644
aI1
asVlight
p6675
(lp6676
I3154
aI1
asS'ber'
p6677
(lp6678
I408
aI2
asS'bes'
p6679
(lp6680
I1510
aI6
asS'bet'
p6681
(lp6682
I2101
aI3
asVmigration
p6683
(lp6684
I2706
aI1
asVDiego
p6685
(lp6686
I2767
aI1
asS'Par'
p6687
(lp6688
I3702
aI1
asVfalse
p6689
(lp6690
I3191
aI1
asV2014
p6691
(lp6692
I3682
aI1
asS'nqu'
p6693
(lp6694
I1911
aI8
asS' Br'
p6695
(lp6696
I2175
aI6
asS'oti'
p6697
(lp6698
I2488
aI1
asS's w'
p6699
(lp6700
I1418
aI24
asVfail
p6701
(lp6702
I3105
aI3
asS'hy'
p6703
(lp6704
I576
aI44
asVhave
p6705
(lp6706
I817
aI18
asVbig-game
p6707
(lp6708
I3673
aI1
asVneed
p6709
(lp6710
I747
aI18
asS'Pal'
p6711
(lp6712
I2634
aI1
asS'sk'
p6713
(lp6714
I843
aI22
asS'ark'
p6715
(lp6716
I3127
aI2
asS'ur '
p6717
(lp6718
I1365
aI23
asVgermain
p6719
(lp6720
I3852
aI1
asS'min'
p6721
(lp6722
I1455
aI9
asS'mia'
p6723
(lp6724
I3403
aI1
asS'hyp'
p6725
(lp6726
I2977
aI1
asS'mic'
p6727
(lp6728
I1773
aI4
asS'mie'
p6729
(lp6730
I2668
aI2
asS'mig'
p6731
(lp6732
I2568
aI8
asS'ums'
p6733
(lp6734
I2690
aI1
asS'hr'
p6735
(lp6736
I1720
aI19
asVsportswear
p6737
(lp6738
I2760
aI1
asVwhich
p6739
(lp6740
I1254
aI8
asS'hs'
p6741
(lp6742
I2711
aI1
asVtruck
p6743
(lp6744
I1525
aI1
asVkorean
p6745
(lp6746
I2113
aI6
asS'aro'
p6747
(lp6748
I3470
aI1
asVmit
p6749
(lp6750
I2474
aI3
asS' El'
p6751
(lp6752
I2521
aI1
asS'whe'
p6753
(lp6754
I767
aI60
asS' En'
p6755
(lp6756
I1564
aI5
asS'ray'
p6757
(lp6758
I3836
aI1
asS'wha'
p6759
(lp6760
I670
aI39
asVwho
p6761
(lp6762
I1319
aI58
asS'whi'
p6763
(lp6764
I1269
aI8
asS'ow '
p6765
(lp6766
I361
aI128
asS'01'
p6767
(lp6768
I2984
aI2
asS'eag'
p6769
(lp6770
I1396
aI8
asS' Eu'
p6771
(lp6772
I2234
aI5
asS'eaf'
p6773
(lp6774
I2331
aI1
asVwhy
p6775
(lp6776
I1853
aI4
asS'cs'
p6777
(lp6778
I2483
aI5
asS'cke'
p6779
(lp6780
I1095
aI4
asS'ure'
p6781
(lp6782
I680
aI9
asS'urg'
p6783
(lp6784
I545
aI23
asS'ura'
p6785
(lp6786
I562
aI50
asS'urb'
p6787
(lp6788
I2933
aI2
asS'ckl'
p6789
(lp6790
I609
aI3
asS'uro'
p6791
(lp6792
I2236
aI7
asVdisease
p6793
(lp6794
I1288
aI10
asS'urk'
p6795
(lp6796
I2948
aI1
asS'bui'
p6797
(lp6798
I1596
aI3
asS'urp'
p6799
(lp6800
I2169
aI1
asVtalk
p6801
(lp6802
I1673
aI6
asS'vin'
p6803
(lp6804
I2917
aI2
asVplague
p6805
(lp6806
I3789
aI1
asS'no,'
p6807
(lp6808
I3630
aI1
asS'09'
p6809
(lp6810
I2795
aI3
asVanswered
p6811
(lp6812
I3506
aI1
asS'toa'
p6813
(lp6814
I1973
aI4
asS'clo'
p6815
(lp6816
I2993
aI6
asS'bub'
p6817
(lp6818
I3790
aI1
asVtraitor
p6819
(lp6820
I1848
aI2
asS'ibe'
p6821
(lp6822
I3810
aI1
asVsoldiers
p6823
(lp6824
I3368
aI1
asVredirect
p6825
(lp6826
I2848
aI1
asS'nge'
p6827
(lp6828
I1468
aI17
asS'ear'
p6829
(lp6830
I1561
aI37
asS'jaz'
p6831
(lp6832
I2695
aI1
asS' w '
p6833
(lp6834
I1602
aI3
asS'p t'
p6835
(lp6836
I3746
aI1
asS'ngl'
p6837
(lp6838
I1566
aI7
asS'Mor'
p6839
(lp6840
I2402
aI1
asS'Vir'
p6841
(lp6842
I2376
aI2
asS' is'
p6843
(lp6844
I672
aI107
asS' it'
p6845
(lp6846
I1018
aI16
asS'e 9'
p6847
(lp6848
I2928
aI1
asS'jap'
p6849
(lp6850
I2155
aI4
asVshould
p6851
(lp6852
I1795
aI5
asS'sh '
p6853
(lp6854
I1965
aI13
asS'ngu'
p6855
(lp6856
I2418
aI1
asS'p a'
p6857
(lp6858
I648
aI3
asVYork
p6859
(lp6860
I1699
aI8
asS'ngr'
p6861
(lp6862
I1069
aI5
asS'ngs'
p6863
(lp6864
I2626
aI1
asV2012
p6865
(lp6866
I2983
aI1
asVpiano
p6867
(lp6868
I3043
aI2
asS'p o'
p6869
(lp6870
I1338
aI2
asVinterested
p6871
(lp6872
I1817
aI1
asS' if'
p6873
(lp6874
I3193
aI2
asVmeant
p6875
(lp6876
I3215
aI1
asS'991'
p6877
(lp6878
I2753
aI1
asVmeans
p6879
(lp6880
I1476
aI1
asVconvert
p6881
(lp6882
I3837
aI1
asS'120'
p6883
(lp6884
I3435
aI1
asVones
p6885
(lp6886
I1761
aI1
asS'ttu'
p6887
(lp6888
I3226
aI1
asS'mul'
p6889
(lp6890
I3119
aI3
asVItalian
p6891
(lp6892
I2194
aI1
asS't e'
p6893
(lp6894
I2731
aI4
asS' we'
p6895
(lp6896
I197
aI65
asS'qu'
p6897
(lp6898
I585
aI16
asS'aet'
p6899
(lp6900
I2162
aI1
asS' wa'
p6901
(lp6902
I128
aI128
asS'c p'
p6903
(lp6904
I1672
aI4
asS' wo'
p6905
(lp6906
I219
aI33
asS'c t'
p6907
(lp6908
I3586
aI1
asS'c u'
p6909
(lp6910
I2699
aI1
asS' wh'
p6911
(lp6912
I766
aI54
asS' wi'
p6913
(lp6914
I1251
aI12
asS'h L'
p6915
(lp6916
I3424
aI1
asS'sha'
p6917
(lp6918
I2657
aI2
asS' wr'
p6919
(lp6920
I2316
aI8
asS'ks '
p6921
(lp6922
I1451
aI2
asVwish
p6923
(lp6924
I3319
aI3
asS' i '
p6925
(lp6926
I880
aI28
asS'shi'
p6927
(lp6928
I1335
aI2
asS'c b'
p6929
(lp6930
I1595
aI2
asS'c c'
p6931
(lp6932
I3648
aI1
asS'c e'
p6933
(lp6934
I3637
aI1
asS'c f'
p6935
(lp6936
I3535
aI1
asS'sho'
p6937
(lp6938
I737
aI31
asV90024
p6939
(lp6940
I2789
aI1
asVfreinds
p6941
(lp6942
I2157
aI1
asS'eba'
p6943
(lp6944
I3522
aI1
asS'vis'
p6945
(lp6946
I2296
aI2
asS'C'
p6947
(lp6948
I686
aI29
asS'ke '
p6949
(lp6950
I1667
aI13
asS'jo '
p6951
(lp6952
I3690
aI1
asVmentioned
p6953
(lp6954
I3086
aI1
asVcomputer
p6955
(lp6956
I1099
aI13
asVchanges
p6957
(lp6958
I2863
aI1
asS'ebr'
p6959
(lp6960
I708
aI4
asS'Pe'
p6961
(lp6962
I1321
aI10
asS'Ph'
p6963
(lp6964
I2596
aI1
asS'wa'
p6965
(lp6966
I99
aI129
asS'yti'
p6967
(lp6968
I3527
aI1
asS'e k'
p6969
(lp6970
I3500
aI1
asVrulers
p6971
(lp6972
I3075
aI1
asVgenius
p6973
(lp6974
I3734
aI1
asS'et '
p6975
(lp6976
I1507
aI9
asS'lue'
p6977
(lp6978
I1189
aI2
asVemail
p6979
(lp6980
I3274
aI2
asS'lun'
p6981
(lp6982
I3558
aI1
asS'jop'
p6983
(lp6984
I3763
aI1
asS'ken'
p6985
(lp6986
I2422
aI3
asS'jor'
p6987
(lp6988
I2607
aI2
asVConception
p6989
(lp6990
I685
aI7
asS'gua'
p6991
(lp6992
I2419
aI1
asVlg
p6993
(lp6994
I3359
aI2
asS'omo'
p6995
(lp6996
I2990
aI2
asS'ked'
p6997
(lp6998
I1171
aI4
asS'rol'
p6999
(lp7000
I3393
aI1
asS'S'
p7001
(lp7002
I2392
aI9
asS'omm'
p7003
(lp7004
I2340
aI10
asS'key'
p7005
(lp7006
I2950
aI1
asS'joh'
p7007
(lp7008
I467
aI7
asS'joi'
p7009
(lp7010
I1393
aI2
asS'ket'
p7011
(lp7012
I1096
aI2
asS'kes'
p7013
(lp7014
I3007
aI1
asS'uum'
p7015
(lp7016
I1843
aI2
asS'etw'
p7017
(lp7018
I2102
aI2
asS'ett'
p7019
(lp7020
I2322
aI5
asVcareer
p7021
(lp7022
I2518
aI1
asS'tly'
p7023
(lp7024
I3053
aI1
asS'c w'
p7025
(lp7026
I1449
aI1
asVconquerer
p7027
(lp7028
I2137
aI1
asS'wt'
p7029
(lp7030
I2066
aI2
asS'tle'
p7031
(lp7032
I2256
aI3
asS'ete'
p7033
(lp7034
I918
aI2
asVconquered
p7035
(lp7036
I2195
aI3
asS'eth'
p7037
(lp7038
I1809
aI4
asS'eti'
p7039
(lp7040
I2946
aI2
asS'wr'
p7041
(lp7042
I2313
aI8
asS'ck'
p7043
(lp7044
I586
aI19
asS's i'
p7045
(lp7046
I73
aI31
asS'ci'
p7047
(lp7048
I291
aI19
asS'ch'
p7049
(lp7050
I440
aI125
asS'co'
p7051
(lp7052
I194
aI117
asS's m'
p7053
(lp7054
I1191
aI12
asS's n'
p7055
(lp7056
I872
aI3
asS's o'
p7057
(lp7058
I908
aI29
asS'ot '
p7059
(lp7060
I874
aI12
asS's a'
p7061
(lp7062
I411
aI75
asS'ca'
p7063
(lp7064
I172
aI73
asS's c'
p7065
(lp7066
I914
aI11
asS's d'
p7067
(lp7068
I64
aI48
asS's e'
p7069
(lp7070
I1165
aI11
asS'ce'
p7071
(lp7072
I344
aI77
asS's g'
p7073
(lp7074
I2540
aI6
asS's y'
p7075
(lp7076
I1363
aI4
asS'uce'
p7077
(lp7078
I398
aI9
asS'ucc'
p7079
(lp7080
I1940
aI6
asS'uca'
p7081
(lp7082
I3024
aI1
asS'Lou'
p7083
(lp7084
I264
aI9
asS's p'
p7085
(lp7086
I2414
aI7
asS'cr'
p7087
(lp7088
I1075
aI23
asS's r'
p7089
(lp7090
I1849
aI3
asS's s'
p7091
(lp7092
I849
aI28
asS's t'
p7093
(lp7094
I130
aI78
asS's u'
p7095
(lp7096
I1120
aI3
asS'cu'
p7097
(lp7098
I692
aI15
asS'uch'
p7099
(lp7100
I1014
aI31
asS'Ger'
p7101
(lp7102
I1554
aI4
asS's J'
p7103
(lp7104
I1131
aI3
asS's L'
p7105
(lp7106
I262
aI6
asVvideos
p7107
(lp7108
I2827
aI1
asS's N'
p7109
(lp7110
I3607
aI2
asVteach
p7111
(lp7112
I2429
aI1
asS's A'
p7113
(lp7114
I974
aI13
asS's B'
p7115
(lp7116
I2248
aI2
asS'ys '
p7117
(lp7118
I2229
aI2
asS's E'
p7119
(lp7120
I986
aI4
asS'yan'
p7121
(lp7122
I2425
aI1
asS'yad'
p7123
(lp7124
I1635
aI5
asS's R'
p7125
(lp7126
I268
aI6
asS'ak'
p7127
(lp7128
I2124
aI6
asS's W'
p7129
(lp7130
I2539
aI6
asS'oth'
p7131
(lp7132
I1497
aI15
asS'f t'
p7133
(lp7134
I715
aI23
asS'f w'
p7135
(lp7136
I1339
aI3
asVcontribute
p7137
(lp7138
I3230
aI2
asS'f p'
p7139
(lp7140
I3743
aI1
asS'f s'
p7141
(lp7142
I2415
aI5
asS'c '
p7143
(lp7144
I1439
aI16
asS'edo'
p7145
(lp7146
I2444
aI2
asS'ote'
p7147
(lp7148
I939
aI31
asVNations
p7149
(lp7150
I1381
aI3
asS'f e'
p7151
(lp7152
I3377
aI2
asS's 9'
p7153
(lp7154
I2818
aI1
asS'hmo'
p7155
(lp7156
I2814
aI1
asS'rpl'
p7157
(lp7158
I1089
aI2
asS'f c'
p7159
(lp7160
I1651
aI3
asS'tsw'
p7161
(lp7162
I2762
aI1
asS'f m'
p7163
(lp7164
I1813
aI2
asS'cou'
p7165
(lp7166
I239
aI27
asS'f o'
p7167
(lp7168
I2453
aI1
asS'ots'
p7169
(lp7170
I836
aI2
asS'f i'
p7171
(lp7172
I53
aI8
asS'f h'
p7173
(lp7174
I2759
aI2
asS'f j'
p7175
(lp7176
I3093
aI1
asS'ysi'
p7177
(lp7178
I2660
aI1
asVsanitation
p7179
(lp7180
I3795
aI1
asS'rby'
p7181
(lp7182
I3085
aI2
asVHow
p7183
(lp7184
I310
aI122
asS'Ann'
p7185
(lp7186
I2348
aI1
asS'rbs'
p7187
(lp7188
I3306
aI1
asS'uis'
p7189
(lp7190
I266
aI11
asS't l'
p7191
(lp7192
I2273
aI7
asS'f D'
p7193
(lp7194
I2887
aI1
asS'uir'
p7195
(lp7196
I1912
aI2
asS'f A'
p7197
(lp7198
I1696
aI4
asS'f C'
p7199
(lp7200
I2079
aI1
asS'Ans'
p7201
(lp7202
I913
aI12
asS'f M'
p7203
(lp7204
I2257
aI1
asS'rbe'
p7205
(lp7206
I1509
aI2
asS'f N'
p7207
(lp7208
I1400
aI4
asS'f I'
p7209
(lp7210
I3033
aI2
asS'f J'
p7211
(lp7212
I155
aI7
asS'va'
p7213
(lp7214
I1706
aI6
asS'Dar'
p7215
(lp7216
I3242
aI1
asS' Fr'
p7217
(lp7218
I1786
aI7
asS've'
p7219
(lp7220
I354
aI74
asS'vi'
p7221
(lp7222
I331
aI38
asVblood
p7223
(lp7224
I2642
aI1
asS't k'
p7225
(lp7226
I3744
aI1
asS'vo'
p7227
(lp7228
I3655
aI2
asVhelped
p7229
(lp7230
I1287
aI1
asS'ave'
p7231
(lp7232
I828
aI24
asS'inf'
p7233
(lp7234
I55
aI23
asS'llo'
p7235
(lp7236
I2582
aI1
asS'c a'
p7237
(lp7238
I2840
aI2
asS'of '
p7239
(lp7240
I52
aI89
asVunveiling
p7241
(lp7242
I3720
aI1
asS'onv'
p7243
(lp7244
I3838
aI1
asVseoul
p7245
(lp7246
I3200
aI2
asS"'m "
p7247
(lp7248
I1416
aI2
asVadministration
p7249
(lp7250
I1435
aI1
asS' Pa'
p7251
(lp7252
I2633
aI2
asS'Nam'
p7253
(lp7254
I3653
aI1
asVComputer
p7255
(lp7256
I3298
aI1
asVlargest
p7257
(lp7258
I1763
aI1
asVinch
p7259
(lp7260
I1752
aI2
asVparty
p7261
(lp7262
I3156
aI1
asS'pho'
p7263
(lp7264
I2535
aI3
asS'ysl'
p7265
(lp7266
I3646
aI1
asS'iou'
p7267
(lp7268
I61
aI21
asS'iot'
p7269
(lp7270
I2487
aI1
asS'ior'
p7271
(lp7272
I3396
aI1
asS'ion'
p7273
(lp7274
I141
aI81
asS'"no'
p7275
(lp7276
I3629
aI1
asS'iol'
p7277
(lp7278
I2275
aI1
asS'iod'
p7279
(lp7280
I2886
aI1
asS'5 '
p7281
(lp7282
I1754
aI3
asS'012'
p7283
(lp7284
I2987
aI1
asVcenter
p7285
(lp7286
I773
aI5
asVlunch
p7287
(lp7288
I3556
aI1
asS'i'
p7289
(lp7290
I7
aI1849
asVwell
p7291
(lp7292
I2263
aI1
asS'col'
p7293
(lp7294
I3352
aI2
asS'ske'
p7295
(lp7296
I3613
aI1
asS'oft'
p7297
(lp7298
I1777
aI3
asS' Ta'
p7299
(lp7300
I3461
aI1
asS'isu'
p7301
(lp7302
I2889
aI1
asS'Jap'
p7303
(lp7304
I3562
aI1
asS'u r'
p7305
(lp7306
I2427
aI5
asS' me'
p7307
(lp7308
I381
aI110
asS'xem'
p7309
(lp7310
I3428
aI1
asS'acy'
p7311
(lp7312
I3863
aI1
asS'tch'
p7313
(lp7314
I2246
aI2
asS'xes'
p7315
(lp7316
I1748
aI2
asVskill
p7317
(lp7318
I2701
aI1
asVlettuce
p7319
(lp7320
I3225
aI1
asS'014'
p7321
(lp7322
I3684
aI1
asS"' n"
p7323
(lp7324
I3593
aI1
asS'i s'
p7325
(lp7326
I881
aI1
asS'wea'
p7327
(lp7328
I1233
aI40
asS'tt '
p7329
(lp7330
I3762
aI1
asS'i w'
p7331
(lp7332
I885
aI74
asS'wee'
p7333
(lp7334
I2104
aI4
asS'wed'
p7335
(lp7336
I2385
aI2
asS'Bl'
p7337
(lp7338
I1182
aI1
asVdrive
p7339
(lp7340
I1405
aI2
asS'sky'
p7341
(lp7342
I851
aI13
asS'Bi'
p7343
(lp7344
I3239
aI2
asS'wel'
p7345
(lp7346
I2266
aI1
asS'i b'
p7347
(lp7348
I1407
aI4
asS'Bu'
p7349
(lp7350
I578
aI17
asS'ger'
p7351
(lp7352
I993
aI4
asS'ade'
p7353
(lp7354
I1333
aI3
asS'i f'
p7355
(lp7356
I1582
aI4
asS'i g'
p7357
(lp7358
I1505
aI3
asS'i d'
p7359
(lp7360
I1348
aI6
asS'i e'
p7361
(lp7362
I3404
aI1
asS'ado'
p7363
(lp7364
I2218
aI1
asS'i h'
p7365
(lp7366
I1800
aI2
asS'adm'
p7367
(lp7368
I1453
aI6
asS'i n'
p7369
(lp7370
I756
aI16
asS'By'
p7371
(lp7372
I2185
aI1
asS'i l'
p7373
(lp7374
I1794
aI4
asS'adi'
p7375
(lp7376
I430
aI7
asS' hy'
p7377
(lp7378
I2976
aI1
asS'nve'
p7379
(lp7380
I3723
aI2
asVknow
p7381
(lp7382
I748
aI29
asVmathematics
p7383
(lp7384
I3168
aI1
asS'nvo'
p7385
(lp7386
I3657
aI2
asS'nvi'
p7387
(lp7388
I2319
aI8
asVGreat's
p7389
(lp7390
I955
aI3
asS'we '
p7391
(lp7392
I3313
aI2
asVEngland
p7393
(lp7394
I3818
aI1
asVlike
p7395
(lp7396
I1420
aI13
asVsuccess
p7397
(lp7398
I2064
aI1
asVparasite
p7399
(lp7400
I3514
aI1
asS'sk '
p7401
(lp7402
I1608
aI7
asS'ad '
p7403
(lp7404
I598
aI64
asVworks
p7405
(lp7406
I1434
aI1
asVitalian
p7407
(lp7408
I3055
aI1
asVfarthest
p7409
(lp7410
I3536
aI1
asVbecause
p7411
(lp7412
I2449
aI1
asS'11 '
p7413
(lp7414
I2930
aI1
asVclassical
p7415
(lp7416
I3767
aI1
asS'njo'
p7417
(lp7418
I3689
aI1
asS'"Wh'
p7419
(lp7420
I3540
aI1
asVgrowth
p7421
(lp7422
I2058
aI2
asS'ts '
p7423
(lp7424
I837
aI28
asVempire
p7425
(lp7426
I1153
aI28
asVgonna
p7427
(lp7428
I3846
aI1
asS'esu'
p7429
(lp7430
I2006
aI4
asS'est'
p7431
(lp7432
I558
aI68
asS'ess'
p7433
(lp7434
I925
aI14
asS'nro'
p7435
(lp7436
I3211
aI1
asS'nd '
p7437
(lp7438
I305
aI76
asS'hod'
p7439
(lp7440
I3799
aI1
asS'ese'
p7441
(lp7442
I813
aI37
asVdoes
p7443
(lp7444
I1002
aI19
asS'esc'
p7445
(lp7446
I3807
aI1
asS'ott'
p7447
(lp7448
I3442
aI2
asV?
p7449
(lp7450
I842
aI54
asS'swi'
p7451
(lp7452
I2355
aI1
asS'oev'
p7453
(lp7454
I3213
aI1
asS'dui'
p7455
(lp7456
I2593
aI2
asS'lle'
p7457
(lp7458
I2308
aI16
asS'Um'
p7459
(lp7460
I1622
aI3
asVBingley
p7461
(lp7462
I3235
aI2
asS'ndi'
p7463
(lp7464
I620
aI9
asVabout
p7465
(lp7466
I1035
aI73
asS'Sch'
p7467
(lp7468
I2461
aI1
asS'nda'
p7469
(lp7470
I2451
aI2
asVuniverse
p7471
(lp7472
I3497
aI1
asS'pu'
p7473
(lp7474
I1102
aI23
asS'nde'
p7475
(lp7476
I980
aI38
asVUS
p7477
(lp7478
I2894
aI2
asVangeles
p7479
(lp7480
I1463
aI11
asS'nq'
p7481
(lp7482
I1909
aI8
asS' jo'
p7483
(lp7484
I466
aI10
asVViruses
p7485
(lp7486
I2371
aI2
asS'by '
p7487
(lp7488
I1178
aI7
asS'es '
p7489
(lp7490
I72
aI94
asS' je'
p7491
(lp7492
I3176
aI1
asS'nds'
p7493
(lp7494
I1498
aI16
asS'es,'
p7495
(lp7496
I2839
aI2
asS' ja'
p7497
(lp7498
I2154
aI4
asS' 10'
p7499
(lp7500
I2807
aI3
asS' 12'
p7501
(lp7502
I3434
aI1
asS'py'
p7503
(lp7504
I2046
aI9
asS'owi'
p7505
(lp7506
I2584
aI1
asS' 15'
p7507
(lp7508
I1756
aI2
asS'owe'
p7509
(lp7510
I804
aI3
asS' 19'
p7511
(lp7512
I2751
aI1
asS' 1 '
p7513
(lp7514
I227
aI12
asVweather
p7515
(lp7516
I1232
aI36
asS'h.'
p7517
(lp7518
I3782
aI1
asVbrush
p7519
(lp7520
I3781
aI1
asS'h,'
p7521
(lp7522
I528
aI2
asS'owt'
p7523
(lp7524
I2075
aI2
asS'h '
p7525
(lp7526
I532
aI94
asV.
p7527
(lp7528
I863
aI18
asS'ows'
p7529
(lp7530
I2907
aI2
asS'n-i'
p7531
(lp7532
I3482
aI1
asS'rcy'
p7533
(lp7534
I3244
aI1
asS'vam'
p7535
(lp7536
I1715
aI1
asS'rct'
p7537
(lp7538
I3625
aI1
asVfriends
p7539
(lp7540
I1492
aI12
asVmuseum
p7541
(lp7542
I1532
aI4
asS'hor'
p7543
(lp7544
I3051
aI1
asS'Ame'
p7545
(lp7546
I1248
aI8
asVspread
p7547
(lp7548
I568
aI67
asS'pa'
p7549
(lp7550
I932
aI35
asS'var'
p7551
(lp7552
I2512
aI1
asS'rce'
p7553
(lp7554
I2212
aI1
asS'vat'
p7555
(lp7556
I3641
aI1
asVfunction
p7557
(lp7558
I1436
aI1
asS'eak'
p7559
(lp7560
I2938
aI2
asVbuy
p7561
(lp7562
I1098
aI50
asS'eam'
p7563
(lp7564
I1049
aI1
asS'eal'
p7565
(lp7566
I3114
aI1
asS'ean'
p7567
(lp7568
I1045
aI19
asS'bur'
p7569
(lp7570
I544
aI23
asVbus
p7571
(lp7572
I2691
aI4
asS'eac'
p7573
(lp7574
I1488
aI3
asS'Des'
p7575
(lp7576
I3806
aI1
asS'ead'
p7577
(lp7578
I429
aI79
asS'ht'
p7579
(lp7580
I1258
aI19
asS'hu'
p7581
(lp7582
I639
aI12
asVadministrators
p7583
(lp7584
I3014
aI1
asVneutral
p7585
(lp7586
I1278
aI2
asS'hi'
p7587
(lp7588
I582
aI112
asS'hn'
p7589
(lp7590
I123
aI29
asS'ho'
p7591
(lp7592
I441
aI156
asS'hl'
p7593
(lp7594
I3312
aI1
asS'hm'
p7595
(lp7596
I2798
aI1
asS'hb'
p7597
(lp7598
I3748
aI1
asS'hc'
p7599
(lp7600
I1592
aI2
asS'eas'
p7601
(lp7602
I69
aI27
asS'ha'
p7603
(lp7604
I96
aI198
asS'eat'
p7605
(lp7606
I376
aI132
asS'he'
p7607
(lp7608
I102
aI460
asS'sme'
p7609
(lp7610
I3438
aI1
asVmade
p7611
(lp7612
I2735
aI1
asS'dmi'
p7613
(lp7614
I1454
aI6
asS'j'
p7615
(lp7616
I438
aI21
asS'lve'
p7617
(lp7618
I3660
aI2
asS'gro'
p7619
(lp7620
I2073
aI2
asVBritain
p7621
(lp7622
I3332
aI1
asVpiece
p7623
(lp7624
I3740
aI1
asS'iny'
p7625
(lp7626
I3851
aI1
asS'pin'
p7627
(lp7628
I1197
aI18
asS'int'
p7629
(lp7630
I1820
aI13
asS'pia'
p7631
(lp7632
I3044
aI2
asS'inv'
p7633
(lp7634
I2318
aI10
asS'pic'
p7635
(lp7636
I2406
aI1
asS'inq'
p7637
(lp7638
I1910
aI2
asS'ins'
p7639
(lp7640
I134
aI15
asVumayyad
p7641
(lp7642
I3665
aI1
asS'piz'
p7643
(lp7644
I1583
aI4
asS'ays'
p7645
(lp7646
I2228
aI2
asS'ini'
p7647
(lp7648
I1456
aI7
asS'ink'
p7649
(lp7650
I3149
aI4
asS'ind'
p7651
(lp7652
I935
aI33
asS'ine'
p7653
(lp7654
I811
aI51
asS'pir'
p7655
(lp7656
I137
aI46
asS'ing'
p7657
(lp7658
I216
aI151
asS'pit'
p7659
(lp7660
I539
aI22
asS'ina'
p7661
(lp7662
I1490
aI10
asS'Or'
p7663
(lp7664
I3667
aI1
asS'inc'
p7665
(lp7666
I1759
aI3
asS'hn '
p7667
(lp7668
I468
aI13
asS'oad'
p7669
(lp7670
I2967
aI1
asS"hn'"
p7671
(lp7672
I2873
aI1
asS'ild'
p7673
(lp7674
I1559
aI14
asVvirtual
p7675
(lp7676
I1674
aI2
asS'4.'
p7677
(lp7678
I2805
aI1
asS' Um'
p7679
(lp7680
I1630
aI3
asVother
p7681
(lp7682
I1491
aI9
asS'oas'
p7683
(lp7684
I1974
aI4
asS'or '
p7685
(lp7686
I145
aI69
asS' tv'
p7687
(lp7688
I3363
aI1
asS'h h'
p7689
(lp7690
I3661
aI1
asS' tu'
p7691
(lp7692
I2932
aI2
asS'ubu'
p7693
(lp7694
I3305
aI1
asVtransferring
p7695
(lp7696
I3463
aI1
asS'ata'
p7697
(lp7698
I3642
aI2
asVtreason
p7699
(lp7700
I1914
aI1
asS'Acr'
p7701
(lp7702
I1691
aI3
asS'U'
p7703
(lp7704
I1620
aI4
asS'ubl'
p7705
(lp7706
I1445
aI3
asS'my '
p7707
(lp7708
I1769
aI5
asS'ubo'
p7709
(lp7710
I3791
aI1
asS'in '
p7711
(lp7712
I74
aI133
asS'ubj'
p7713
(lp7714
I3263
aI1
asVinspiration
p7715
(lp7716
I83
aI1
asS' Mo'
p7717
(lp7718
I2258
aI10
asVsamsung
p7719
(lp7720
I2011
aI3
asS'eon'
p7721
(lp7722
I1059
aI2
asS'hno'
p7723
(lp7724
I1296
aI1
asS'eos'
p7725
(lp7726
I2843
aI1
asS'thb'
p7727
(lp7728
I3752
aI1
asS'eop'
p7729
(lp7730
I2630
aI1
asS'h n'
p7731
(lp7732
I3287
aI2
asS'eou'
p7733
(lp7734
I2055
aI5
asS'o '
p7735
(lp7736
I341
aI295
as.