(lp1
(lp2
I560
aI9
aa(lp3
I226
aI561
aI371
aI204
aI2
aI532
aI112
aI208
aI40
aa(lp4
I18
aI1
aI562
aI563
aa(lp5
I564
aI208
aI486
aI565
aI477
aI23
aI566
aI4
aI0
aa(lp6
I30
aI8
aI34
aI8
aI100
aI8
aI101
aI8
aI2
aI8
aI175
aI8
aI176
aI11
aa(lp7
I18
aI74
aI373
aa(lp8
I18
aI1
aI99
aa(lp9
I0
aI85
aI113
aI567
aa(lp10
I568
aI8
aI158
aI8
aI519
aI8
aI94
aI8
aI33
aI11
aa(lp11
I135
aI17
aI54
aI569
aa(lp12
I53
aI8
aI17
aI8
aI54
aI8
aI79
aI11
aa(lp13
I30
aI8
aI14
aI413
aI8
aI31
aI8
aI33
aI11
aa(lp14
I30
aI8
aI34
aI8
aI100
aI8
aI101
aI8
aI23
aI8
aI42
aI8
aI29
aI11
aa(lp15
I104
aI70
aI570
aI208
aI571
aI572
aI486
aI573
aI574
aa(lp16
I27
aI8
aI13
aI8
aI28
aI8
aI23
aI8
aI29
aI305
aI11
aa(lp17
I68
aI69
aI1
aI2
aI575
aa(lp18
I576
aI8
aI17
aI8
aI117
aI8
aI577
aI11
aa(lp19
I53
aI8
aI17
aI8
aI87
aI8
aI40
aI8
aI41
aI11
aa(lp20
I68
aI69
aI70
aI77
aI73
aI40
aI159
aI152
aI84
aI40
aI71
aI158
aa(lp21
I30
aI8
aI34
aI8
aI100
aI8
aI101
aI8
aI23
aI8
aI94
aI8
aI136
aI11
aa(lp22
I247
aI8
aI38
aI8
aI578
aI8
aI44
aI8
aI38
aI8
aI39
aI8
aI218
aI8
aI33
aI11
aa(lp23
I30
aI8
aI374
aI8
aI40
aI8
aI20
aI8
aI54
aI8
aI2
aI8
aI9
aI11
aa(lp24
I579
aI8
aI17
aI8
aI40
aI8
aI23
aI8
aI61
aI8
aI120
aI11
aa(lp25
I145
aI8
aI137
aI8
aI38
aI8
aI51
aI8
aI23
aI8
aI580
aI8
aI581
aI11
aa(lp26
I6
aI8
aI1
aI8
aI23
aI8
aI32
aI8
aI136
aI8
aI40
aI8
aI582
aI8
aI470
aI8
aI197
aI11
aa(lp27
I30
aI8
aI39
aI8
aI40
aI8
aI20
aI8
aI54
aI8
aI23
aI8
aI583
aI8
aI391
aI11
aa(lp28
I30
aI8
aI39
aI8
aI131
aI8
aI33
aI11
aa(lp29
I259
aI472
aI8
aI66
aI8
aI40
aI8
aI20
aI8
aI87
aI8
aI40
aI8
aI41
aI11
aa(lp30
I145
aI8
aI1
aI8
aI2
aI8
aI175
aI8
aI176
aI8
aI25
aI8
aI84
aI11
aa(lp31
I53
aI8
aI17
aI8
aI2
aI8
aI132
aI11
aa(lp32
I68
aI14
aI38
aI584
aa(lp33
I145
aI8
aI76
aI8
aI38
aI8
aI49
aI8
aI480
aI305
aI11
aa(lp34
I345
aI8
aI17
aI8
aI40
aI8
aI113
aI8
aI48
aI11
aa(lp35
I18
aI1
aI585
aI586
aa(lp36
I53
aI8
aI17
aI8
aI54
aI8
aI2
aI8
aI9
aI11
aa(lp37
I22
aI8
aI17
aI8
aI23
aI8
aI29
aI11
aa(lp38
I49
aI13
aI587
aI77
aa(lp39
I145
aI8
aI137
aI8
aI38
aI8
aI51
aI8
aI44
aI8
aI588
aI11
aa(lp40
I53
aI8
aI17
aI8
aI54
aI8
aI23
aI8
aI24
aI8
aI25
aI8
aI26
aI11
aa(lp41
I30
aI8
aI39
aI8
aI40
aI8
aI582
aI8
aI196
aI8
aI589
aI11
aa(lp42
I247
aI8
aI44
aI8
aI1
aI8
aI15
aI8
aI590
aI8
aI38
aI8
aI591
aI8
aI44
aI8
aI38
aI8
aI39
aI8
aI42
aI8
aI33
aI11
aa(lp43
I30
aI8
aI31
aI8
aI94
aI8
aI33
aI11
aa(lp44
I68
aI69
aI1
aI23
aI592
aI454
aa(lp45
I53
aI8
aI17
aI8
aI593
aI8
aI54
aI8
aI113
aI8
aI48
aI11
aa(lp46
I307
aI204
aI2
aI372
aI112
aI208
aa(lp47
I68
aI69
aI1
aI47
aI594
aI4
aI440
aa(lp48
I30
aI8
aI39
aI8
aI23
aI8
aI42
aI8
aI29
aI11
aa(lp49
I235
aI8
aI54
aI8
aI2
aI8
aI9
aI11
aa(lp50
I30
aI8
aI425
aI8
aI109
aI8
aI595
aI8
aI596
aI8
aI597
aI8
aI186
aI8
aI187
aI8
aI598
aI8
aI135
aI8
aI17
aI8
aI54
aI8
aI2
aI8
aI258
aI8
aI79
aI8
aI216
aI11
aa(lp51
I104
aI204
aI2
aI599
aI600
aI339
aI601
aI280
aI59
aI433
aI207
aa(lp52
I53
aI8
aI17
aI8
aI54
aI8
aI23
aI8
aI32
aI8
aI29
aI11
aa(lp53
I602
aI8
aI24
aI11
aa(lp54
I0
aI1
aI603
aI604
aa(lp55
I30
aI8
aI31
aI8
aI131
aI8
aI33
aI8
aI37
aI8
aI38
aI8
aI39
aI8
aI40
aI8
aI179
aI8
aI40
aI8
aI2
aI8
aI605
aI8
aI58
aI11
aa(lp56
I6
aI8
aI1
aI8
aI2
aI8
aI132
aI11
aa(lp57
I18
aI1
aI606
aI607
aa(lp58
I30
aI8
aI39
aI8
aI42
aI8
aI33
aI11
aa(lp59
I18
aI1
aI2
aI608
aI400
aa(lp60
I0
aI14
aI13
aI192
aI54
aI438
aa(lp61
I0
aI1
aI2
aI180
aI141
aI609
aa(lp62
I18
aI1
aI2
aI610
aI4
aI99
aa(lp63
I53
aI8
aI17
aI8
aI87
aI8
aI361
aI8
aI137
aI8
aI78
aI8
aI527
aI8
aI33
aI11
aa(lp64
I1
aI63
aI505
aa(lp65
I259
aI320
aI8
aI100
aI8
aI101
aI8
aI23
aI8
aI42
aI8
aI47
aI11
aa(lp66
I348
aI8
aI38
aI8
aI34
aI8
aI321
aI8
aI209
aI11
aa(lp67
I30
aI8
aI66
aI8
aI42
aI8
aI33
aI11
aa(lp68
I30
aI8
aI39
aI8
aI40
aI8
aI195
aI8
aI54
aI8
aI2
aI8
aI9
aI11
aa(lp69
I68
aI1
aI2
aI9
aI254
aI505
aa(lp70
I43
aI8
aI77
aI8
aI50
aI8
aI40
aI8
aI465
aI11
aa(lp71
I30
aI8
aI14
aI413
aI8
aI39
aI8
aI40
aI8
aI49
aI8
aI295
aI8
aI33
aI8
aI611
aI11
aa(lp72
I521
aI8
aI33
aI11
aa(lp73
I87
aI1
aI365
aI366
aI367
aa(lp74
I375
aI14
aI153
aI612
aI2
aI613
aI4
aI2
aI614
aI615
aa(lp75
I53
aI8
aI17
aI8
aI54
aI8
aI23
aI8
aI29
aI8
aI25
aI8
aI26
aI11
aa(lp76
I30
aI8
aI31
aI8
aI40
aI8
aI20
aI8
aI87
aI8
aI40
aI8
aI41
aI11
aa(lp77
I616
aa(lp78
I49
aI13
aI587
aI17
aa(lp79
I30
aI8
aI39
aI8
aI40
aI8
aI51
aI8
aI212
aI11
aa(lp80
I53
aI8
aI17
aI8
aI23
aI8
aI54
aI8
aI617
aI8
aI25
aI8
aI186
aI8
aI187
aI11
aa(lp81
I141
aI37
aI81
aa(lp82
I53
aI8
aI17
aI8
aI54
aI8
aI23
aI8
aI29
aI11
aa(lp83
I125
aI8
aI9
aI8
aI126
aI8
aI127
aI8
aI128
aI8
aI618
aI11
aa(lp84
I30
aI8
aI39
aI8
aI23
aI8
aI24
aI11
aa(lp85
I46
aI8
aI136
aI8
aI87
aI8
aI38
aI8
aI137
aI8
aI49
aI8
aI23
aI8
aI619
aI11
aa(lp86
I6
aI8
aI620
aI8
aI2
aI8
aI132
aI8
aI268
aI11
aa(lp87
I53
aI8
aI17
aI8
aI54
aI8
aI113
aI8
aI48
aI11
aa(lp88
I307
aI204
aI338
aI208
aI486
aI2
aI449
aa(lp89
I307
aI14
aI13
aI621
aI23
aI622
aI623
aa(lp90
I624
aI8
aI505
aI8
aI625
aI8
aI440
aI8
aI56
aI8
aI25
aI8
aI26
aI11
aa(lp91
I626
aI8
aI361
aI8
aI39
aI8
aI40
aI8
aI20
aI8
aI87
aI8
aI40
aI8
aI41
aI11
aa(lp92
I53
aI8
aI17
aI8
aI54
aI8
aI297
aI11
aa(lp93
I30
aI8
aI39
aI8
aI40
aI8
aI165
aI8
aI40
aI8
aI23
aI8
aI120
aI11
aa(lp94
I0
aI1
aI330
aI627
aI45
aa(lp95
I38
aI31
aI628
aa(lp96
I629
aI8
aI33
aI11
aa(lp97
I351
aI8
aI85
aI8
aI113
aI8
aI48
aI11
aa(lp98
I30
aI8
aI374
aI8
aI40
aI8
aI20
aI8
aI2
aI8
aI9
aI11
aa(lp99
I87
aI105
aI99
aI467
aI305
aa(lp100
I226
aI1
aI2
aI208
aI4
aI334
aI554
aI486
aI371
aI630
aa(lp101
I259
aI8
aI34
aI8
aI100
aI8
aI101
aI8
aI196
aI8
aI197
aI8
aI198
aI11
aa(lp102
I30
aI8
aI39
aI8
aI40
aI8
aI41
aI8
aI131
aI8
aI33
aI8
aI25
aI8
aI2
aI8
aI605
aI8
aI58
aI11
aa(lp103
I68
aI69
aI1
aI23
aI631
aI4
aI632
aa(lp104
I53
aI8
aI17
aI8
aI2
aI8
aI633
aI11
aa(lp105
I345
aI8
aI17
aI8
aI40
aI8
aI113
aI8
aI118
aI11
aa(lp106
I6
aI8
aI1
aI8
aI2
aI8
aI9
aI8
aI66
aI11
aa(lp107
I30
aI8
aI34
aI8
aI100
aI8
aI101
aI8
aI196
aI8
aI243
aI11
aa(lp108
I87
aI105
aI99
aI492
aI305
aa(lp109
I145
aI8
aI1
aI8
aI2
aI8
aI262
aI8
aI634
aI8
aI25
aI8
aI84
aI11
aa(lp110
I44
aI1
aI635
aa(lp111
I53
aI8
aI17
aI8
aI54
aI8
aI113
aI8
aI316
aI8
aI48
aI11
aa(lp112
I22
aI8
aI17
aI8
aI23
aI8
aI42
aI8
aI29
aI8
aI25
aI8
aI186
aI8
aI187
aI11
aa(lp113
I13
aI636
aI637
aI330
aI638
aa(lp114
I30
aI8
aI34
aI8
aI100
aI8
aI101
aI8
aI23
aI8
aI94
aI8
aI47
aI11
aa(lp115
I14
aI13
aI49
aI639
aa(lp116
I145
aI8
aI1
aI8
aI2
aI8
aI175
aI8
aI176
aI8
aI25
aI8
aI84
aI11
aa(lp117
I53
aI8
aI17
aI8
aI54
aI8
aI316
aI8
aI62
aI11
aa(lp118
I0
aI1
aI2
aI3
aI4
aI5
aa(lp119
I6
aI7
aI8
aI2
aI8
aI9
aI8
aI10
aI11
aa(lp120
I12
aI11
aa(lp121
I13
aI14
aI15
aI16
aI17
aa(lp122
I18
aI1
aI19
aa(lp123
I14
aI13
aI20
aI21
aa(lp124
I22
aI8
aI17
aI8
aI23
aI8
aI24
aI8
aI25
aI8
aI26
aI11
aa(lp125
I27
aI8
aI13
aI8
aI28
aI8
aI23
aI8
aI29
aI11
aa(lp126
I30
aI8
aI31
aI8
aI32
aI8
aI33
aI11
aa(lp127
I30
aI8
aI34
aI8
aI25
aI8
aI35
aI8
aI36
aI8
aI37
aI8
aI38
aI8
aI39
aI8
aI40
aI8
aI41
aI8
aI42
aI8
aI33
aI11
aa(lp128
I43
aI8
aI44
aI8
aI2
aI8
aI45
aI8
aI4
aI8
aI2
aI8
aI24
aI11
aa(lp129
I46
aI8
aI42
aI8
aI47
aI11
aa(lp130
I6
aI8
aI48
aI8
aI14
aI8
aI13
aI8
aI49
aI11
aa(lp131
I30
aI8
aI34
aI8
aI50
aI8
aI40
aI8
aI51
aI8
aI23
aI8
aI52
aI11
aa(lp132
I53
aI8
aI17
aI8
aI54
aI8
aI55
aI8
aI56
aI11
aa(lp133
I0
aI1
aI2
aI57
aI58
aI25
aI2
aI59
aa(lp134
I60
aI8
aI13
aI8
aI49
aI8
aI61
aI8
aI62
aI8
aI63
aI11
aa(lp135
I64
aI65
aa(lp136
I30
aI8
aI66
aI8
aI67
aI8
aI33
aI11
aa(lp137
I68
aI69
aI70
aI23
aI71
aI72
aI73
aa(lp138
I30
aI8
aI31
aI8
aI40
aI8
aI20
aI8
aI54
aI8
aI2
aI8
aI9
aI11
aa(lp139
I18
aI74
aI75
aa(lp140
I68
aI76
aI38
aI14
aI77
aa(lp141
I30
aI8
aI39
aI8
aI40
aI8
aI78
aI8
aI23
aI8
aI79
aI8
aI80
aI11
aa(lp142
I38
aI14
aI15
aI20
aI81
aa(lp143
I0
aI1
aI2
aI57
aI82
aI25
aI2
aI59
aa(lp144
I77
aI1
aI83
aa(lp145
I6
aI7
aI8
aI2
aI8
aI9
aI8
aI10
aI8
aI25
aI8
aI84
aI11
aa(lp146
I13
aI85
aI86
aa(lp147
I53
aI8
aI17
aI8
aI87
aI8
aI40
aI8
aI41
aI11
aa(lp148
I30
aI8
aI39
aI8
aI40
aI8
aI20
aI8
aI54
aI8
aI2
aI8
aI9
aI11
aa(lp149
I68
aI69
aI1
aI23
aI88
aI89
aa(lp150
I90
aa(lp151
I53
aI8
aI17
aI8
aI87
aI8
aI40
aI8
aI41
aI11
aa(lp152
I91
aI92
aI25
aI8
aI84
aI93
aI8
aI23
aI8
aI94
aI8
aI29
aI92
aI11
aa(lp153
I95
aI8
aI23
aI8
aI96
aI8
aI25
aI8
aI97
aI11
aa(lp154
I18
aI98
aI99
aa(lp155
I30
aI8
aI34
aI8
aI100
aI8
aI101
aI8
aI42
aI8
aI102
aI11
aa(lp156
I34
aI38
aI103
aa(lp157
I22
aI8
aI17
aI8
aI23
aI8
aI29
aI8
aI25
aI8
aI26
aI11
aa(lp158
I104
aI105
aI106
aI107
aI108
aI109
aI110
aI111
aI112
aa(lp159
I0
aI1
aI113
aI114
aI115
aa(lp160
I0
aI1
aI23
aI116
aa(lp161
I30
aI8
aI39
aI8
aI40
aI8
aI117
aI11
aa(lp162
I53
aI8
aI17
aI8
aI54
aI8
aI113
aI8
aI118
aI11
aa(lp163
I30
aI8
aI39
aI8
aI40
aI8
aI119
aI8
aI40
aI8
aI23
aI8
aI120
aI8
aI121
aI8
aI40
aI8
aI121
aI11
aa(lp164
I122
aa(lp165
I68
aI69
aI1
aI23
aI88
aI123
aa(lp166
I30
aI8
aI39
aI8
aI40
aI8
aI124
aI8
aI54
aI8
aI56
aI11
aa(lp167
I125
aI8
aI9
aI8
aI126
aI8
aI127
aI8
aI128
aI8
aI129
aI11
aa(lp168
I91
aI92
aI130
aI93
aI8
aI38
aI8
aI39
aI8
aI131
aI8
aI33
aI92
aI11
aa(lp169
I53
aI8
aI17
aI8
aI2
aI8
aI132
aI8
aI4
aI8
aI133
aI8
aI23
aI11
aa(lp170
I134
aI8
aI13
aI8
aI135
aI8
aI17
aI8
aI23
aI8
aI136
aI8
aI87
aI8
aI38
aI8
aI137
aI8
aI138
aI8
aI139
aI8
aI33
aI11
aa(lp171
I6
aI8
aI1
aI8
aI2
aI8
aI132
aI8
aI25
aI8
aI140
aI11
aa(lp172
I30
aI8
aI39
aI8
aI23
aI8
aI24
aI8
aI25
aI8
aI84
aI11
aa(lp173
I141
aI142
aI143
aI141
aa(lp174
I144
aI11
aa(lp175
I145
aI8
aI76
aI8
aI38
aI8
aI41
aI11
aa(lp176
I30
aI8
aI34
aI8
aI50
aI8
aI40
aI8
aI51
aI8
aI146
aI11
aa(lp177
I14
aI13
aI147
aI148
aa(lp178
I68
aI69
aI1
aI23
aI71
aI149
aI150
aI88
aI123
aa(lp179
I68
aI69
aI1
aI2
aI151
aI152
aI26
aa(lp180
I153
aI154
aI155
aa(lp181
I125
aI8
aI156
aI8
aI157
aI8
aI96
aI8
aI25
aI8
aI71
aI8
aI158
aI11
aa(lp182
I68
aI69
aI70
aI77
aI73
aI40
aI159
aI152
aI84
aI40
aI71
aI158
aa(lp183
I53
aI8
aI17
aI8
aI54
aI8
aI23
aI8
aI24
aI11
aa(lp184
I14
aI13
aI66
aI160
aa(lp185
I30
aI8
aI31
aI8
aI40
aI8
aI20
aI8
aI87
aI8
aI40
aI8
aI41
aI11
aa(lp186
I30
aI8
aI34
aI8
aI50
aI8
aI40
aI8
aI161
aI8
aI162
aI8
aI13
aI8
aI28
aI8
aI23
aI8
aI32
aI8
aI24
aI8
aI163
aI8
aI164
aI11
aa(lp187
I30
aI8
aI39
aI8
aI40
aI8
aI165
aI8
aI40
aI8
aI166
aI8
aI18
aI8
aI167
aI8
aI23
aI8
aI168
aI11
aa(lp188
I53
aI8
aI17
aI8
aI54
aI8
aI23
aI8
aI24
aI11
aa(lp189
I169
aI7
aI8
aI165
aI8
aI54
aI8
aI2
aI8
aI9
aI11
aa(lp190
I18
aI1
aI113
aI170
aI171
aa(lp191
I30
aI8
aI34
aI8
aI50
aI8
aI40
aI8
aI51
aI8
aI23
aI8
aI172
aI11
aa(lp192
I0
aI1
aI2
aI173
aI82
aI25
aI2
aI59
aa(lp193
I30
aI8
aI31
aI8
aI40
aI8
aI20
aI8
aI87
aI8
aI40
aI8
aI41
aI11
aa(lp194
I30
aI8
aI34
aI8
aI100
aI8
aI101
aI8
aI174
aI8
aI33
aI11
aa(lp195
I30
aI8
aI34
aI8
aI100
aI8
aI101
aI8
aI23
aI8
aI175
aI8
aI176
aI11
aa(lp196
I85
aI13
aI23
aI177
aa(lp197
I30
aI8
aI39
aI8
aI131
aI8
aI33
aI11
aa(lp198
I30
aI8
aI39
aI8
aI40
aI8
aI117
aI11
aa(lp199
I6
aI8
aI54
aI8
aI2
aI8
aI24
aI8
aI38
aI8
aI178
aI8
aI13
aI8
aI101
aI11
aa(lp200
I53
aI8
aI17
aI8
aI54
aI8
aI23
aI8
aI136
aI8
aI40
aI8
aI179
aI8
aI79
aI11
aa(lp201
I0
aI1
aI2
aI180
aI141
aI181
aI182
aa(lp202
I87
aI1
aI2
aI183
aI184
aa(lp203
I0
aI185
aI1
aI77
aI25
aI35
aa(lp204
I53
aI8
aI17
aI8
aI54
aI8
aI23
aI8
aI42
aI8
aI29
aI8
aI25
aI8
aI186
aI8
aI187
aI11
aa(lp205
I30
aI8
aI39
aI8
aI40
aI8
aI51
aI8
aI23
aI8
aI188
aI8
aI189
aI8
aI87
aI8
aI137
aI8
aI38
aI8
aI51
aI8
aI77
aI11
aa(lp206
I38
aI34
aI190
aa(lp207
I18
aI191
aI99
aa(lp208
I30
aI8
aI34
aI8
aI100
aI8
aI101
aI8
aI23
aI8
aI24
aI11
aa(lp209
I22
aI8
aI17
aI8
aI23
aI8
aI79
aI8
aI80
aI11
aa(lp210
I18
aI14
aI13
aI192
aI1
aI50
aI40
aI193
aI2
aI194
aa(lp211
I30
aI8
aI39
aI8
aI40
aI8
aI20
aI8
aI2
aI8
aI132
aI8
aI101
aI8
aI133
aI8
aI23
aI11
aa(lp212
I30
aI8
aI39
aI8
aI40
aI8
aI195
aI8
aI54
aI8
aI2
aI8
aI9
aI11
aa(lp213
I22
aI8
aI17
aI8
aI196
aI8
aI197
aI8
aI198
aI11
aa(lp214
I199
aa(lp215
I85
aI13
aI200
aa(lp216
I68
aI69
aI76
aI153
aI201
aI101
aI160
aI202
aa(lp217
I30
aI8
aI34
aI8
aI50
aI8
aI40
aI8
aI51
aI8
aI23
aI8
aI203
aI11
aa(lp218
I104
aI204
aI205
aI206
aI207
aI208
aa(lp219
I30
aI8
aI34
aI8
aI15
aI8
aI209
aI11
aa(lp220
I210
aI8
aI33
aI11
aa(lp221
I211
aI11
aa(lp222
I30
aI8
aI34
aI8
aI50
aI8
aI40
aI8
aI51
aI8
aI212
aI11
aa(lp223
I22
aI8
aI17
aI8
aI23
aI8
aI24
aI8
aI25
aI8
aI26
aI8
aI25
aI8
aI2
aI8
aI213
aI8
aI214
aI11
aa(lp224
I14
aI13
aI138
aI215
aa(lp225
I30
aI8
aI34
aI8
aI100
aI8
aI101
aI8
aI23
aI8
aI79
aI8
aI216
aI11
aa(lp226
I30
aI8
aI217
aI8
aI66
aI8
aI218
aI8
aI33
aI11
aa(lp227
I53
aI8
aI17
aI8
aI9
aI8
aI219
aI11
aa(lp228
I68
aI69
aI1
aI23
aI220
aI4
aI221
aa(lp229
I60
aI8
aI13
aI8
aI49
aI8
aI23
aI8
aI222
aI8
aI223
aI11
aa(lp230
I68
aI69
aI1
aI2
aI224
aI225
aa(lp231
I226
aI227
aI228
aI229
aI13
aI230
aI231
aI23
aI232
aa(lp232
I53
aI8
aI17
aI8
aI54
aI8
aI56
aI11
aa(lp233
I126
aI0
aa(lp234
I0
aI1
aI2
aI233
aI4
aI234
aa(lp235
I53
aI8
aI17
aI8
aI54
aI8
aI23
aI8
aI24
aI11
aa(lp236
I235
aI8
aI54
aI8
aI2
aI8
aI9
aI11
aa(lp237
I53
aI8
aI17
aI8
aI54
aI8
aI197
aI8
aI236
aI8
aI25
aI8
aI26
aI11
aa(lp238
I30
aI8
aI34
aI8
aI100
aI8
aI101
aI8
aI237
aI8
aI33
aI11
aa(lp239
I13
aI85
aI15
aI238
aa(lp240
I22
aI8
aI17
aI8
aI23
aI8
aI239
aI11
aa(lp241
I30
aI8
aI39
aI8
aI40
aI8
aI41
aI8
aI94
aI8
aI33
aI11
aa(lp242
I30
aI8
aI39
aI8
aI42
aI8
aI240
aI11
aa(lp243
I30
aI8
aI31
aI8
aI131
aI8
aI33
aI11
aa(lp244
I235
aI8
aI137
aI8
aI38
aI8
aI138
aI8
aI152
aI8
aI241
aI8
aI37
aI8
aI242
aI8
aI40
aI8
aI2
aI8
aI243
aI11
aa(lp245
I68
aI69
aI1
aI196
aI244
aI245
aa(lp246
I30
aI8
aI39
aI8
aI40
aI8
aI119
aI8
aI40
aI8
aI23
aI8
aI61
aI8
aI120
aI11
aa(lp247
I30
aI8
aI39
aI8
aI40
aI8
aI78
aI8
aI23
aI8
aI239
aI11
aa(lp248
I53
aI8
aI17
aI8
aI2
aI8
aI9
aI8
aI246
aI11
aa(lp249
I247
aI8
aI38
aI8
aI34
aI8
aI100
aI8
aI101
aI8
aI79
aI11
aa(lp250
I14
aI13
aI66
aI248
aa(lp251
I30
aI8
aI34
aI8
aI50
aI8
aI40
aI8
aI51
aI8
aI249
aI11
aa(lp252
I53
aI8
aI17
aI8
aI54
aI8
aI2
aI8
aI250
aI8
aI251
aI8
aI42
aI8
aI56
aI8
aI25
aI8
aI186
aI8
aI187
aI11
aa(lp253
I30
aI8
aI252
aI8
aI66
aI8
aI40
aI8
aI165
aI8
aI40
aI8
aI23
aI8
aI61
aI8
aI120
aI11
aa(lp254
I53
aI8
aI17
aI8
aI54
aI8
aI253
aI11
aa(lp255
I145
aI8
aI137
aI8
aI38
aI8
aI138
aI8
aI42
aI8
aI33
aI11
aa(lp256
I226
aI70
aI254
aI255
aI200
aa(lp257
I53
aI8
aI17
aI8
aI54
aI8
aI23
aI8
aI29
aI8
aI25
aI8
aI186
aI8
aI187
aI11
aa(lp258
I30
aI8
aI39
aI8
aI40
aI8
aI51
aI8
aI256
aI11
aa(lp259
I53
aI8
aI17
aI8
aI54
aI8
aI23
aI8
aI29
aI11
aa(lp260
I257
aI8
aI101
aI8
aI42
aI8
aI33
aI11
aa(lp261
I30
aI8
aI34
aI8
aI100
aI8
aI101
aI8
aI23
aI8
aI79
aI8
aI80
aI11
aa(lp262
I30
aI8
aI39
aI8
aI40
aI8
aI41
aI8
aI94
aI8
aI33
aI11
aa(lp263
I145
aI8
aI1
aI8
aI2
aI8
aI258
aI8
aI79
aI8
aI216
aI11
aa(lp264
I53
aI8
aI17
aI8
aI2
aI8
aI9
aI11
aa(lp265
I259
aI8
aI34
aI8
aI50
aI8
aI40
aI8
aI51
aI8
aI260
aI11
aa(lp266
I14
aI13
aI66
aI261
aa(lp267
I30
aI8
aI39
aI8
aI40
aI8
aI20
aI8
aI54
aI8
aI87
aI8
aI40
aI8
aI41
aI11
aa(lp268
I68
aI69
aI1
aI196
aI262
aI263
aa(lp269
I38
aI34
aI264
aa(lp270
I68
aI69
aI1
aI23
aI265
aa(lp271
I30
aI8
aI34
aI8
aI100
aI8
aI101
aI8
aI253
aI11
aa(lp272
I6
aI8
aI1
aI8
aI2
aI8
aI9
aI11
aa(lp273
I43
aI8
aI77
aI8
aI266
aI267
aI8
aI268
aI8
aI269
aI11
aa(lp274
I68
aI69
aI1
aI23
aI151
aI152
aI26
aI40
aI97
aa(lp275
I104
aI70
aI270
aI271
aI272
aI40
aI273
aI101
aI2
aI274
aI275
aa(lp276
I87
aI1
aI276
aa(lp277
I104
aI204
aI2
aI277
aI4
aI278
aI279
aI280
aI205
aI206
aI207
aa(lp278
I257
aI8
aI101
aI8
aI23
aI8
aI42
aI8
aI29
aI11
aa(lp279
I30
aI8
aI39
aI8
aI23
aI8
aI174
aI8
aI29
aI11
aa(lp280
I281
aI282
aI283
aa(lp281
I30
aI8
aI39
aI8
aI40
aI8
aI49
aI8
aI284
aI8
aI33
aI11
aa(lp282
I0
aI185
aI1
aI77
aI25
aI285
aa(lp283
I53
aI8
aI17
aI8
aI87
aI8
aI40
aI8
aI286
aI11
aa(lp284
I30
aI8
aI39
aI8
aI40
aI8
aI20
aI8
aI2
aI8
aI9
aI8
aI126
aI8
aI127
aI8
aI287
aI8
aI288
aI11
aa(lp285
I14
aI13
aI49
aI23
aI289
aa(lp286
I30
aI8
aI34
aI8
aI23
aI8
aI290
aI8
aI4
aI8
aI209
aI11
aa(lp287
I291
aI8
aI17
aI8
aI2
aI8
aI292
aI8
aI293
aI11
aa(lp288
I6
aI8
aI1
aI8
aI2
aI8
aI9
aI8
aI66
aI11
aa(lp289
I30
aI8
aI294
aI8
aI131
aI8
aI33
aI11
aa(lp290
I30
aI8
aI34
aI8
aI100
aI8
aI101
aI8
aI295
aI8
aI33
aI11
aa(lp291
I30
aI8
aI34
aI8
aI100
aI8
aI101
aI8
aI23
aI8
aI136
aI8
aI40
aI8
aI51
aI8
aI296
aI11
aa(lp292
I30
aI8
aI34
aI8
aI100
aI8
aI101
aI8
aI297
aI11
aa(lp293
I30
aI8
aI34
aI8
aI100
aI8
aI101
aI8
aI23
aI8
aI32
aI8
aI29
aI11
aa(lp294
I30
aI8
aI39
aI8
aI40
aI8
aI179
aI8
aI79
aI11
aa(lp295
I30
aI8
aI34
aI8
aI100
aI8
aI101
aI8
aI23
aI8
aI29
aI11
aa(lp296
I30
aI8
aI34
aI8
aI100
aI8
aI101
aI8
aI94
aI8
aI33
aI11
aa(lp297
I298
aI8
aI151
aI11
aa(lp298
I30
aI8
aI39
aI8
aI67
aI8
aI33
aI11
aa(lp299
I53
aI8
aI17
aI8
aI54
aI8
aI23
aI8
aI61
aI8
aI120
aI11
aa(lp300
I14
aI13
aI192
aI38
aI34
aI299
aa(lp301
I0
aI300
aI4
aI301
aa(lp302
I13
aI76
aI16
aa(lp303
I68
aI69
aI1
aI23
aI302
aI303
aI304
aa(lp304
I18
aI98
aI99
aI305
aa(lp305
I53
aI8
aI17
aI8
aI2
aI8
aI9
aI11
aa(lp306
I306
aa(lp307
I307
aI204
aI106
aI2
aI308
aI7
aI112
aI309
aa(lp308
I53
aI8
aI17
aI8
aI87
aI8
aI40
aI8
aI41
aI11
aa(lp309
I0
aI1
aI310
aI4
aI262
aI311
aa(lp310
I312
aI8
aI33
aI11
aa(lp311
I22
aI8
aI17
aI8
aI23
aI8
aI136
aI8
aI40
aI8
aI51
aI8
aI33
aI11
aa(lp312
I14
aI13
aI20
aI313
aa(lp313
I22
aI8
aI17
aI8
aI23
aI8
aI29
aI11
aa(lp314
I0
aI14
aI13
aI20
aI54
aI314
aa(lp315
I30
aI8
aI294
aI8
aI131
aI8
aI33
aI11
aa(lp316
I30
aI8
aI66
aI8
aI94
aI8
aI33
aI11
aa(lp317
I53
aI8
aI17
aI8
aI54
aI8
aI2
aI8
aI9
aI11
aa(lp318
I23
aI315
aa(lp319
I53
aI8
aI17
aI8
aI54
aI8
aI316
aI8
aI317
aI8
aI318
aI8
aI319
aI11
aa(lp320
I30
aI8
aI34
aI8
aI25
aI8
aI84
aI8
aI37
aI8
aI100
aI8
aI101
aI8
aI23
aI8
aI174
aI8
aI29
aI11
aa(lp321
I30
aI320
aI8
aI321
aI8
aI209
aI11
aa(lp322
I135
aI17
aI54
aI113
aI322
aa(lp323
I30
aI8
aI34
aI8
aI323
aI8
aI25
aI8
aI324
aI8
aI23
aI8
aI136
aI8
aI40
aI8
aI41
aI11
aa(lp324
I325
aa(lp325
I68
aI69
aI1
aI23
aI265
aI326
aI327
aI328
aa(lp326
I53
aI8
aI17
aI8
aI54
aI8
aI113
aI8
aI48
aI11
aa(lp327
I53
aI8
aI17
aI8
aI87
aI8
aI40
aI8
aI41
aI11
aa(lp328
I81
aa(lp329
I53
aI8
aI17
aI8
aI54
aI8
aI23
aI8
aI29
aI11
aa(lp330
I329
aa(lp331
I30
aI8
aI39
aI8
aI40
aI8
aI41
aI8
aI42
aI8
aI33
aI11
aa(lp332
I25
aI330
aI331
aI332
aa(lp333
I226
aI137
aI333
aI2
aI208
aI4
aI334
aI335
aa(lp334
I30
aI8
aI39
aI8
aI40
aI8
aI165
aI8
aI40
aI8
aI23
aI8
aI222
aI8
aI223
aI11
aa(lp335
I14
aI13
aI20
aI336
aa(lp336
I226
aI1
aI47
aI337
aI81
aI338
aI25
aI339
aI340
aI208
aI25
aI2
aI341
aI342
aI280
aI37
aI343
aI205
aI206
aI207
aa(lp337
I61
aI344
aa(lp338
I345
aI8
aI17
aI8
aI40
aI8
aI316
aI8
aI319
aI11
aa(lp339
I30
aI8
aI34
aI8
aI100
aI8
aI101
aI8
aI23
aI8
aI94
aI8
aI29
aI8
aI25
aI8
aI186
aI8
aI187
aI11
aa(lp340
I68
aI69
aI1
aI196
aI72
aI346
aa(lp341
I30
aI8
aI39
aI8
aI23
aI8
aI24
aI8
aI25
aI8
aI26
aI347
aI11
aa(lp342
I348
aI8
aI38
aI8
aI217
aI8
aI321
aI8
aI209
aI11
aa(lp343
I53
aI8
aI17
aI8
aI87
aI8
aI40
aI8
aI51
aI8
aI349
aI11
aa(lp344
I30
aI8
aI39
aI8
aI40
aI8
aI20
aI8
aI54
aI8
aI23
aI8
aI32
aI8
aI29
aI11
aa(lp345
I30
aI8
aI34
aI8
aI100
aI8
aI101
aI8
aI174
aI8
aI33
aI11
aa(lp346
I38
aI252
aI15
aa(lp347
I53
aI8
aI17
aI8
aI350
aI8
aI54
aI8
aI79
aI11
aa(lp348
I351
aI8
aI85
aI8
aI113
aI8
aI48
aI11
aa(lp349
I18
aI1
aI2
aI352
aI4
aI353
aa(lp350
I30
aI8
aI20
aI8
aI40
aI8
aI20
aI8
aI54
aI8
aI469
aI7
aI11
aa(lp351
I53
aI8
aI17
aI8
aI350
aI8
aI54
aI8
aI2
aI8
aI96
aI8
aI4
aI8
aI470
aI8
aI197
aI11
aa(lp352
I0
aI1
aI2
aI57
aI82
aI25
aI2
aI59
aa(lp353
I226
aI340
aI432
aI126
aI370
aI471
aI280
aI205
aI206
aI207
aa(lp354
I30
aI8
aI39
aI8
aI23
aI8
aI24
aI8
aI163
aI8
aI2
aI8
aI183
aI8
aI184
aI8
aI25
aI8
aI26
aI11
aa(lp355
I259
aI472
aI8
aI66
aI8
aI40
aI8
aI20
aI8
aI54
aI8
aI23
aI8
aI29
aI11
aa(lp356
I259
aI472
aI8
aI66
aI8
aI40
aI8
aI51
aI8
aI146
aI11
aa(lp357
I14
aI13
aI66
aI123
aI473
aa(lp358
I38
aI14
aI15
aI49
aI23
aI114
aa(lp359
I30
aI8
aI39
aI8
aI42
aI8
aI33
aI11
aa(lp360
I145
aI8
aI1
aI8
aI2
aI8
aI258
aI8
aI474
aI8
aI475
aI11
aa(lp361
I87
aI1
aI2
aI183
aI184
aa(lp362
I476
aI477
aa(lp363
I68
aI69
aI1
aI23
aI302
aI478
aa(lp364
I22
aI8
aI17
aI8
aI23
aI8
aI24
aI11
aa(lp365
I30
aI8
aI34
aI8
aI100
aI8
aI101
aI8
aI23
aI8
aI42
aI8
aI47
aI11
aa(lp366
I18
aI74
aI2
aI479
aa(lp367
I30
aI8
aI14
aI413
aI8
aI39
aI8
aI40
aI8
aI49
aI8
aI480
aI11
aa(lp368
I30
aI8
aI39
aI8
aI40
aI8
aI20
aI8
aI54
aI8
aI56
aI11
aa(lp369
I307
aI204
aI481
aI482
aI483
aI54
aI484
aa(lp370
I307
aI204
aI485
aI208
aI486
aI487
aa(lp371
I30
aI8
aI14
aI413
aI8
aI39
aI8
aI23
aI8
aI29
aI347
aI11
aa(lp372
I14
aI13
aI20
aI488
aa(lp373
I489
aI490
aa(lp374
I491
aI11
aa(lp375
I18
aI1
aI365
aI366
aI367
aa(lp376
I30
aI8
aI31
aI8
aI23
aI8
aI24
aI11
aa(lp377
I466
aI105
aI99
aI492
aI305
aa(lp378
I247
aI8
aI38
aI8
aI14
aI413
aI8
aI39
aI8
aI40
aI8
aI41
aI11
aa(lp379
I85
aI13
aI493
aI494
aa(lp380
I46
aI8
aI495
aI8
aI79
aI8
aI216
aI11
aa(lp381
I30
aI8
aI34
aI8
aI100
aI8
aI101
aI8
aI23
aI8
aI94
aI8
aI29
aI11
aa(lp382
I68
aI69
aI1
aI2
aI224
aI225
aI152
aI26
aI40
aI84
aa(lp383
I95
aI8
aI23
aI8
aI32
aI8
aI197
aI8
aI96
aI11
aa(lp384
I30
aI8
aI34
aI8
aI100
aI8
aI101
aI8
aI23
aI8
aI79
aI8
aI80
aI8
aI25
aI8
aI186
aI8
aI187
aI11
aa(lp385
I30
aI8
aI39
aI8
aI23
aI8
aI94
aI8
aI29
aI8
aI25
aI8
aI84
aI11
aa(lp386
I53
aI8
aI17
aI8
aI54
aI8
aI87
aI8
aI40
aI8
aI41
aI11
aa(lp387
I91
aI305
aI305
aI305
aI305
aI305
aI305
aI305
aI305
aI305
aI305
aI305
aI305
aI305
aI305
aI305
aI305
aI305
aI305
aI305
aI305
aI305
aI305
aI305
aI11
aa(lp388
I53
aI8
aI17
aI8
aI54
aI8
aI23
aI8
aI24
aI8
aI25
aI8
aI26
aI11
aa(lp389
I53
aI8
aI17
aI8
aI2
aI8
aI9
aI11
aa(lp390
I18
aI1
aI2
aI400
aI4
aI2
aI401
aa(lp391
I38
aI34
aI496
aa(lp392
I30
aI8
aI39
aI8
aI94
aI8
aI33
aI11
aa(lp393
I30
aI8
aI39
aI8
aI40
aI8
aI195
aI8
aI54
aI8
aI33
aI11
aa(lp394
I68
aI69
aI1
aI440
aI25
aI84
aa(lp395
I30
aI8
aI34
aI8
aI100
aI8
aI101
aI8
aI146
aI11
aa(lp396
I30
aI8
aI39
aI8
aI40
aI8
aI117
aI8
aI40
aI8
aI26
aI8
aI497
aI8
aI498
aI11
aa(lp397
I18
aI85
aI2
aI499
aI500
aI4
aI2
aI452
aI453
aa(lp398
I13
aI85
aI501
aa(lp399
I30
aI8
aI39
aI8
aI40
aI8
aI78
aI8
aI23
aI8
aI175
aI8
aI176
aI11
aa(lp400
I369
aI370
aI502
aI204
aI2
aI112
aI4
aI106
aI2
aI308
aI208
aa(lp401
I30
aI8
aI34
aI8
aI100
aI8
aI101
aI8
aI174
aI8
aI33
aI11
aa(lp402
I30
aI8
aI34
aI8
aI100
aI8
aI101
aI8
aI23
aI8
aI174
aI8
aI47
aI11
aa(lp403
I53
aI8
aI17
aI8
aI2
aI8
aI9
aI11
aa(lp404
I503
aa(lp405
I504
aI8
aI505
aI8
aI268
aI8
aI23
aI8
aI391
aI8
aI497
aI8
aI498
aI11
aa(lp406
I30
aI8
aI39
aI8
aI40
aI8
aI49
aI8
aI42
aI8
aI32
aI11
aa(lp407
I235
aI8
aI54
aI8
aI23
aI8
aI61
aI8
aI120
aI8
aI18
aI8
aI167
aI8
aI506
aI11
aa(lp408
I30
aI8
aI39
aI8
aI40
aI8
aI179
aI8
aI40
aI8
aI23
aI8
aI33
aI8
aI507
aI11
aa(lp409
I508
aa(lp410
I87
aI1
aI509
aI510
aa(lp411
I53
aI8
aI17
aI8
aI54
aI8
aI79
aI11
aa(lp412
I511
aI25
aI512
aI280
aI205
aI206
aI207
aa(lp413
I307
aI85
aI513
aI208
aI486
aI2
aI514
aa(lp414
I22
aI8
aI17
aI8
aI23
aI8
aI24
aI8
aI25
aI8
aI186
aI8
aI187
aI11
aa(lp415
I46
aI8
aI24
aI11
aa(lp416
I6
aI8
aI1
aI8
aI2
aI8
aI420
aI8
aI198
aI8
aI515
aI8
aI63
aI11
aa(lp417
I226
aI85
aI2
aI340
aI516
aI517
aI59
aI433
aI207
aa(lp418
I30
aI8
aI31
aI8
aI40
aI8
aI20
aI8
aI2
aI8
aI9
aI11
aa(lp419
I226
aI371
aI204
aI2
aI518
aI112
aI208
aI40
aa(lp420
I0
aI185
aI1
aI77
aI25
aI71
aI158
aI519
aa(lp421
I30
aI8
aI294
aI8
aI40
aI8
aI41
aI8
aI109
aI8
aI2
aI8
aI520
aI8
aI216
aI11
aa(lp422
I521
aI8
aI33
aI8
aI1
aI8
aI32
aI11
aa(lp423
I68
aI522
aI1
aI23
aI523
aa(lp424
I81
aI432
aI13
aI492
aa(lp425
I104
aI1
aI524
aI525
aa(lp426
I25
aI0
aI526
aa(lp427
I6
aI8
aI85
aI8
aI527
aI8
aI32
aI8
aI56
aI8
aI55
aI11
aa(lp428
I18
aI492
aI99
aa(lp429
I30
aI8
aI39
aI8
aI40
aI8
aI78
aI8
aI23
aI8
aI29
aI11
aa(lp430
I85
aI13
aI528
aa(lp431
I22
aI8
aI17
aI8
aI23
aI8
aI406
aI8
aI529
aI11
aa(lp432
I87
aI1
aI530
aI531
aa(lp433
I30
aI8
aI34
aI8
aI100
aI8
aI101
aI8
aI23
aI8
aI42
aI8
aI47
aI11
aa(lp434
I430
aI371
aI204
aI2
aI532
aI112
aI208
aI40
aa(lp435
I30
aI8
aI294
aI8
aI295
aI8
aI33
aI11
aa(lp436
I18
aI1
aI400
aI4
aI2
aI452
aI453
aa(lp437
I145
aI8
aI76
aI8
aI38
aI8
aI49
aI8
aI533
aI11
aa(lp438
I30
aI8
aI34
aI8
aI50
aI8
aI40
aI8
aI51
aI8
aI260
aI11
aa(lp439
I345
aI8
aI17
aI8
aI40
aI8
aI113
aI8
aI61
aI8
aI120
aI8
aI118
aI11
aa(lp440
I0
aI1
aI2
aI180
aI141
aI534
aa(lp441
I53
aI8
aI17
aI8
aI54
aI8
aI113
aI8
aI48
aI11
aa(lp442
I535
aI8
aI33
aI8
aI1
aI8
aI536
aI8
aI101
aI8
aI537
aI11
aa(lp443
I30
aI8
aI34
aI8
aI100
aI8
aI101
aI8
aI23
aI8
aI24
aI11
aa(lp444
I30
aI8
aI294
aI8
aI42
aI8
aI33
aI11
aa(lp445
I247
aI8
aI38
aI8
aI31
aI8
aI295
aI8
aI33
aI11
aa(lp446
I18
aI1
aI538
aa(lp447
I6
aI8
aI1
aI8
aI2
aI8
aI132
aI11
aa(lp448
I497
aI1
aI539
aa(lp449
I30
aI8
aI34
aI8
aI25
aI8
aI186
aI8
aI187
aI8
aI37
aI8
aI50
aI8
aI40
aI8
aI51
aI8
aI146
aI11
aa(lp450
I38
aI34
aI540
aI13
aa(lp451
I541
aI40
aI542
aa(lp452
I53
aI8
aI17
aI8
aI54
aI8
aI113
aI8
aI48
aI11
aa(lp453
I466
aI432
aI13
aI543
aa(lp454
I544
aa(lp455
I545
aI8
aI117
aI8
aI40
aI8
aI26
aI11
aa(lp456
I23
aI546
aI418
aa(lp457
I38
aI66
aI44
aa(lp458
I30
aI8
aI34
aI8
aI100
aI8
aI101
aI8
aI295
aI8
aI33
aI11
aa(lp459
I85
aI13
aI23
aI547
aa(lp460
I18
aI1
aI2
aI400
aI4
aI548
aI305
aa(lp461
I38
aI34
aI23
aI549
aa(lp462
I550
aI330
aI551
aI1
aa(lp463
I226
aI85
aI2
aI552
aI553
aI4
aI110
aI334
aI554
aa(lp464
I555
aI556
aI557
aI558
aI559
aa(lp465
I145
aI8
aI76
aI8
aI38
aI8
aI179
aI8
aI40
aI8
aI41
aI11
aa.